	.file	"ctime.c"
	.option nopic
	.text
.Ltext0:
	.cfi_sections	.debug_frame
	.section	.rodata
	.align	2
	.type	__spm, @object
	.size	__spm, 26
__spm:
	.half	0
	.half	31
	.half	59
	.half	90
	.half	120
	.half	151
	.half	181
	.half	212
	.half	243
	.half	273
	.half	304
	.half	334
	.half	365
	.align	2
.LC0:
	.string	"Sun Mon Tue Wed Thu Fri Sat "
	.section	.sdata,"aw"
	.align	2
	.type	days, @object
	.size	days, 4
days:
	.word	.LC0
	.section	.rodata
	.align	2
.LC1:
	.string	"Jan Feb Mar Apr May Jun Jul Aug Sep Oct Nov Dec "
	.section	.sdata
	.align	2
	.type	months, @object
	.size	months, 4
months:
	.word	.LC1
	.text
	.align	1
	.type	__isleap, @function
__isleap:
.LFB24:
	.file 1 "../rt-thread/components/libc/compilers/common/ctime.c"
	.loc 1 71 1
	.cfi_startproc
	addi	sp,sp,-32
	.cfi_def_cfa_offset 32
	sw	s0,28(sp)
	.cfi_offset 8, -4
	addi	s0,sp,32
	.cfi_def_cfa 8, 0
	sw	a0,-20(s0)
	.loc 1 75 13
	lw	a5,-20(s0)
	andi	a5,a5,3
	.loc 1 75 25
	bnez	a5,.L2
	.loc 1 75 35 discriminator 1
	lw	a4,-20(s0)
	li	a5,100
	rem	a5,a4,a5
	.loc 1 75 25 discriminator 1
	bnez	a5,.L3
	.loc 1 75 52 discriminator 4
	lw	a4,-20(s0)
	li	a5,400
	rem	a5,a4,a5
	.loc 1 75 42 discriminator 4
	bnez	a5,.L2
.L3:
	.loc 1 75 25 discriminator 5
	li	a5,1
	j	.L5
.L2:
	.loc 1 75 25 is_stmt 0 discriminator 6
	li	a5,0
.L5:
	.loc 1 76 1 is_stmt 1 discriminator 9
	mv	a0,a5
	lw	s0,28(sp)
	.cfi_restore 8
	addi	sp,sp,32
	.cfi_def_cfa_register 2
	jr	ra
	.cfi_endproc
.LFE24:
	.size	__isleap, .-__isleap
	.align	1
	.type	num2str, @function
num2str:
.LFB25:
	.loc 1 80 1
	.cfi_startproc
	addi	sp,sp,-32
	.cfi_def_cfa_offset 32
	sw	s0,28(sp)
	.cfi_offset 8, -4
	addi	s0,sp,32
	.cfi_def_cfa 8, 0
	sw	a0,-20(s0)
	sw	a1,-24(s0)
	.loc 1 81 14
	lw	a4,-24(s0)
	li	a5,10
	div	a5,a4,a5
	.loc 1 81 19
	andi	a5,a5,0xff
	addi	a5,a5,48
	andi	a4,a5,0xff
	.loc 1 81 10
	lw	a5,-20(s0)
	sb	a4,0(a5)
	.loc 1 82 14
	lw	a4,-24(s0)
	li	a5,10
	rem	a5,a4,a5
	.loc 1 82 19
	andi	a4,a5,0xff
	.loc 1 82 6
	lw	a5,-20(s0)
	addi	a5,a5,1
	.loc 1 82 19
	addi	a4,a4,48
	andi	a4,a4,0xff
	.loc 1 82 10
	sb	a4,0(a5)
	.loc 1 83 1
	nop
	lw	s0,28(sp)
	.cfi_restore 8
	addi	sp,sp,32
	.cfi_def_cfa_register 2
	jr	ra
	.cfi_endproc
.LFE25:
	.size	num2str, .-num2str
	.section	.rodata
	.align	2
.LC2:
	.string	"rtc"
	.text
	.align	1
	.type	get_timeval, @function
get_timeval:
.LFB26:
	.loc 1 91 1
	.cfi_startproc
	addi	sp,sp,-48
	.cfi_def_cfa_offset 48
	sw	ra,44(sp)
	sw	s0,40(sp)
	.cfi_offset 1, -4
	.cfi_offset 8, -8
	addi	s0,sp,48
	.cfi_def_cfa 8, 0
	sw	a0,-36(s0)
	.loc 1 94 14
	li	a5,-1
	sw	a5,-20(s0)
	.loc 1 96 8
	lw	a5,-36(s0)
	bnez	a5,.L8
	.loc 1 97 16
	li	a5,-10
	j	.L9
.L8:
	.loc 1 100 16
	lw	a5,-36(s0)
	li	a3,0
	li	a4,0
	sw	a3,0(a5)
	sw	a4,4(a5)
	.loc 1 101 17
	lw	a5,-36(s0)
	sw	zero,8(a5)
	.loc 1 104 16
	lla	a5,device.3774
	lw	a5,0(a5)
	.loc 1 104 8
	bnez	a5,.L10
	.loc 1 106 18
	lla	a0,.LC2
	call	rt_device_find
	mv	a4,a0
	.loc 1 106 16
	lla	a5,device.3774
	sw	a4,0(a5)
.L10:
	.loc 1 110 16
	lla	a5,device.3774
	lw	a5,0(a5)
	.loc 1 110 8
	beqz	a5,.L11
	.loc 1 112 13
	lla	a5,device.3774
	lw	a5,0(a5)
	li	a1,0
	mv	a0,a5
	call	rt_device_open
	mv	a5,a0
	.loc 1 112 12
	bnez	a5,.L13
	.loc 1 114 19
	lla	a5,device.3774
	lw	a5,0(a5)
	.loc 1 114 91
	lw	a4,-36(s0)
	.loc 1 114 19
	mv	a2,a4
	li	a1,1537
	mv	a0,a5
	call	rt_device_control
	sw	a0,-20(s0)
	.loc 1 115 13
	lla	a5,device.3774
	lw	a5,0(a5)
	lw	a2,-36(s0)
	li	a1,1539
	mv	a0,a5
	call	rt_device_control
	.loc 1 116 13
	lla	a5,device.3774
	lw	a5,0(a5)
	mv	a0,a5
	call	rt_device_close
	j	.L13
.L11:
	.loc 1 122 16
	li	a5,-6
	j	.L9
.L13:
	.loc 1 125 12
	lw	a5,-20(s0)
.L9:
	.loc 1 131 1
	mv	a0,a5
	lw	ra,44(sp)
	.cfi_restore 1
	lw	s0,40(sp)
	.cfi_restore 8
	addi	sp,sp,48
	.cfi_def_cfa_register 2
	jr	ra
	.cfi_endproc
.LFE26:
	.size	get_timeval, .-get_timeval
	.align	1
	.type	set_timeval, @function
set_timeval:
.LFB27:
	.loc 1 139 1
	.cfi_startproc
	addi	sp,sp,-48
	.cfi_def_cfa_offset 48
	sw	ra,44(sp)
	sw	s0,40(sp)
	.cfi_offset 1, -4
	.cfi_offset 8, -8
	addi	s0,sp,48
	.cfi_def_cfa 8, 0
	sw	a0,-36(s0)
	.loc 1 142 14
	li	a5,-1
	sw	a5,-20(s0)
	.loc 1 144 8
	lw	a5,-36(s0)
	bnez	a5,.L15
	.loc 1 145 16
	li	a5,-10
	j	.L16
.L15:
	.loc 1 148 16
	lla	a5,device.3779
	lw	a5,0(a5)
	.loc 1 148 8
	bnez	a5,.L17
	.loc 1 150 18
	lla	a0,.LC2
	call	rt_device_find
	mv	a4,a0
	.loc 1 150 16
	lla	a5,device.3779
	sw	a4,0(a5)
.L17:
	.loc 1 154 16
	lla	a5,device.3779
	lw	a5,0(a5)
	.loc 1 154 8
	beqz	a5,.L18
	.loc 1 156 13
	lla	a5,device.3779
	lw	a5,0(a5)
	li	a1,0
	mv	a0,a5
	call	rt_device_open
	mv	a5,a0
	.loc 1 156 12
	bnez	a5,.L20
	.loc 1 158 19
	lla	a5,device.3779
	lw	a5,0(a5)
	.loc 1 158 91
	lw	a4,-36(s0)
	.loc 1 158 19
	mv	a2,a4
	li	a1,1538
	mv	a0,a5
	call	rt_device_control
	sw	a0,-20(s0)
	.loc 1 159 13
	lla	a5,device.3779
	lw	a5,0(a5)
	lw	a2,-36(s0)
	li	a1,1540
	mv	a0,a5
	call	rt_device_control
	.loc 1 160 13
	lla	a5,device.3779
	lw	a5,0(a5)
	mv	a0,a5
	call	rt_device_close
	j	.L20
.L18:
	.loc 1 166 16
	li	a5,-6
	j	.L16
.L20:
	.loc 1 169 12
	lw	a5,-20(s0)
.L16:
	.loc 1 175 1
	mv	a0,a5
	lw	ra,44(sp)
	.cfi_restore 1
	lw	s0,40(sp)
	.cfi_restore 8
	addi	sp,sp,48
	.cfi_def_cfa_register 2
	jr	ra
	.cfi_endproc
.LFE27:
	.size	set_timeval, .-set_timeval
	.globl	__moddi3
	.globl	__divdi3
	.align	1
	.globl	gmtime_r
	.type	gmtime_r, @function
gmtime_r:
.LFB28:
	.loc 1 178 1
	.cfi_startproc
	addi	sp,sp,-48
	.cfi_def_cfa_offset 48
	sw	ra,44(sp)
	sw	s0,40(sp)
	.cfi_offset 1, -4
	.cfi_offset 8, -8
	addi	s0,sp,48
	.cfi_def_cfa 8, 0
	sw	a0,-36(s0)
	sw	a1,-40(s0)
	.loc 1 182 7
	lw	a5,-36(s0)
	beqz	a5,.L22
	.loc 1 182 19 discriminator 1
	lw	a5,-40(s0)
	bnez	a5,.L23
.L22:
	.loc 1 184 9
	li	a0,14
	call	rt_set_errno
	.loc 1 185 16
	li	a5,0
	j	.L24
.L23:
	.loc 1 188 5
	li	a2,36
	li	a1,0
	lw	a0,-40(s0)
	call	rt_memset
	.loc 1 190 12
	lw	a5,-36(s0)
	lw	a6,4(a5)
	lw	a5,0(a5)
	.loc 1 190 19
	li	a2,86016
	addi	a2,a2,384
	li	a3,0
	mv	a0,a5
	mv	a1,a6
	call	__moddi3
.LVL0:
	mv	a5,a0
	mv	a6,a1
	.loc 1 190 10
	sw	a5,-24(s0)
	.loc 1 191 22
	lw	a4,-24(s0)
	li	a5,60
	rem	a4,a4,a5
	.loc 1 191 15
	lw	a5,-40(s0)
	sw	a4,0(a5)
	.loc 1 192 10
	lw	a4,-24(s0)
	li	a5,60
	div	a5,a4,a5
	sw	a5,-24(s0)
	.loc 1 193 22
	lw	a4,-24(s0)
	li	a5,60
	rem	a4,a4,a5
	.loc 1 193 15
	lw	a5,-40(s0)
	sw	a4,4(a5)
	.loc 1 194 23
	lw	a4,-24(s0)
	li	a5,60
	div	a4,a4,a5
	.loc 1 194 16
	lw	a5,-40(s0)
	sw	a4,8(a5)
	.loc 1 195 18
	lw	a5,-36(s0)
	lw	a6,4(a5)
	lw	a5,0(a5)
	.loc 1 195 25
	li	a2,86016
	addi	a2,a2,384
	li	a3,0
	mv	a0,a5
	mv	a1,a6
	call	__divdi3
.LVL1:
	mv	a5,a0
	mv	a6,a1
	.loc 1 195 10
	sw	a5,-24(s0)
	.loc 1 196 21
	lw	a5,-24(s0)
	addi	a4,a5,4
	.loc 1 196 29
	li	a5,7
	rem	a4,a4,a5
	.loc 1 196 16
	lw	a5,-40(s0)
	sw	a4,24(a5)
	.loc 1 197 12
	li	a5,1970
	sw	a5,-20(s0)
.L30:
.LBB2:
	.loc 1 199 17
	lw	a0,-20(s0)
	call	__isleap
	mv	a5,a0
	.loc 1 199 35
	beqz	a5,.L25
	.loc 1 199 35 is_stmt 0 discriminator 1
	li	a5,366
	j	.L26
.L25:
	.loc 1 199 35 discriminator 2
	li	a5,365
.L26:
	.loc 1 199 13 is_stmt 1 discriminator 4
	sw	a5,-28(s0)
	.loc 1 200 12 discriminator 4
	lw	a4,-24(s0)
	lw	a5,-28(s0)
	blt	a4,a5,.L36
	.loc 1 201 18
	lw	a4,-24(s0)
	lw	a5,-28(s0)
	sub	a5,a4,a5
	sw	a5,-24(s0)
.LBE2:
	.loc 1 197 21
	lw	a5,-20(s0)
	addi	a5,a5,1
	sw	a5,-20(s0)
	.loc 1 198 5
	j	.L30
.L36:
.LBB3:
	.loc 1 203 13
	nop
.LBE3:
	.loc 1 205 20
	lw	a5,-20(s0)
	addi	a4,a5,-1900
	.loc 1 205 16
	lw	a5,-40(s0)
	sw	a4,20(a5)
	.loc 1 206 16
	lw	a5,-40(s0)
	lw	a4,-24(s0)
	sw	a4,28(a5)
	.loc 1 208 16
	lw	a5,-40(s0)
	li	a4,1
	sw	a4,12(a5)
	.loc 1 209 9
	lw	a0,-20(s0)
	call	__isleap
	mv	a5,a0
	.loc 1 209 8
	beqz	a5,.L31
	.loc 1 209 21 discriminator 1
	lw	a4,-24(s0)
	li	a5,58
	ble	a4,a5,.L31
	.loc 1 211 12
	lw	a4,-24(s0)
	li	a5,59
	bne	a4,a5,.L32
	.loc 1 212 24
	lw	a5,-40(s0)
	li	a4,2
	sw	a4,12(a5)
.L32:
	.loc 1 213 14
	lw	a5,-24(s0)
	addi	a5,a5,-1
	sw	a5,-24(s0)
.L31:
	.loc 1 216 12
	li	a5,11
	sw	a5,-20(s0)
	.loc 1 216 5
	j	.L33
.L35:
	.loc 1 216 42 discriminator 4
	lw	a5,-20(s0)
	addi	a5,a5,-1
	sw	a5,-20(s0)
.L33:
	.loc 1 216 5 discriminator 1
	lw	a5,-20(s0)
	beqz	a5,.L34
	.loc 1 216 29 discriminator 3
	lla	a4,__spm
	lw	a5,-20(s0)
	slli	a5,a5,1
	add	a5,a4,a5
	lh	a5,0(a5)
	mv	a4,a5
	.loc 1 216 20 discriminator 3
	lw	a5,-24(s0)
	blt	a5,a4,.L35
.L34:
	.loc 1 218 15
	lw	a5,-40(s0)
	lw	a4,-20(s0)
	sw	a4,16(a5)
	.loc 1 219 16
	lw	a5,-40(s0)
	lw	a4,12(a5)
	.loc 1 219 31
	lla	a3,__spm
	lw	a5,-20(s0)
	slli	a5,a5,1
	add	a5,a3,a5
	lh	a5,0(a5)
	mv	a3,a5
	.loc 1 219 24
	lw	a5,-24(s0)
	sub	a5,a5,a3
	.loc 1 219 16
	add	a4,a4,a5
	lw	a5,-40(s0)
	sw	a4,12(a5)
	.loc 1 221 19
	call	tz_is_dst
	mv	a5,a0
	mv	a4,a5
	.loc 1 221 17
	lw	a5,-40(s0)
	sw	a4,32(a5)
	.loc 1 222 12
	lw	a5,-40(s0)
.L24:
	.loc 1 223 1
	mv	a0,a5
	lw	ra,44(sp)
	.cfi_restore 1
	lw	s0,40(sp)
	.cfi_restore 8
	addi	sp,sp,48
	.cfi_def_cfa_register 2
	jr	ra
	.cfi_endproc
.LFE28:
	.size	gmtime_r, .-gmtime_r
	.align	1
	.globl	gmtime
	.type	gmtime, @function
gmtime:
.LFB29:
	.loc 1 227 1
	.cfi_startproc
	addi	sp,sp,-32
	.cfi_def_cfa_offset 32
	sw	ra,28(sp)
	sw	s0,24(sp)
	.cfi_offset 1, -4
	.cfi_offset 8, -8
	addi	s0,sp,32
	.cfi_def_cfa 8, 0
	sw	a0,-20(s0)
	.loc 1 229 12
	lla	a1,tmp.3796
	lw	a0,-20(s0)
	call	gmtime_r
	mv	a5,a0
	.loc 1 230 1
	mv	a0,a5
	lw	ra,28(sp)
	.cfi_restore 1
	lw	s0,24(sp)
	.cfi_restore 8
	addi	sp,sp,32
	.cfi_def_cfa_register 2
	jr	ra
	.cfi_endproc
.LFE29:
	.size	gmtime, .-gmtime
	.align	1
	.globl	localtime_r
	.type	localtime_r, @function
localtime_r:
.LFB30:
	.loc 1 234 1
	.cfi_startproc
	addi	sp,sp,-64
	.cfi_def_cfa_offset 64
	sw	ra,60(sp)
	sw	s0,56(sp)
	sw	s2,52(sp)
	sw	s3,48(sp)
	sw	s4,44(sp)
	sw	s5,40(sp)
	sw	s6,36(sp)
	sw	s7,32(sp)
	.cfi_offset 1, -4
	.cfi_offset 8, -8
	.cfi_offset 18, -12
	.cfi_offset 19, -16
	.cfi_offset 20, -20
	.cfi_offset 21, -24
	.cfi_offset 22, -28
	.cfi_offset 23, -32
	addi	s0,sp,64
	.cfi_def_cfa 8, 0
	sw	a0,-52(s0)
	sw	a1,-56(s0)
	.loc 1 237 16
	lw	a5,-52(s0)
	lw	s6,0(a5)
	lw	s7,4(a5)
	.loc 1 237 29
	call	tz_get
	mv	a5,a0
	.loc 1 237 21
	mv	s4,a5
	srai	a5,a5,31
	mv	s5,a5
	.loc 1 237 38
	li	a5,4096
	addi	a5,a5,-496
	mul	a4,s5,a5
	li	a5,0
	mul	a5,s4,a5
	add	a4,a4,a5
	li	a5,4096
	addi	a5,a5,-496
	mul	a3,s4,a5
	mulhu	s3,s4,a5
	mv	s2,a3
	add	a5,a4,s3
	mv	s3,a5
	.loc 1 237 19
	add	a5,s6,s2
	mv	a4,a5
	sltu	a4,a4,s6
	add	a6,s7,s3
	add	a4,a4,a6
	mv	a6,a4
	.loc 1 237 14
	sw	a5,-40(s0)
	sw	a6,-36(s0)
	.loc 1 238 12
	addi	a5,s0,-40
	lw	a1,-56(s0)
	mv	a0,a5
	call	gmtime_r
	mv	a5,a0
	.loc 1 239 1
	mv	a0,a5
	lw	ra,60(sp)
	.cfi_restore 1
	lw	s0,56(sp)
	.cfi_restore 8
	lw	s2,52(sp)
	.cfi_restore 18
	lw	s3,48(sp)
	.cfi_restore 19
	lw	s4,44(sp)
	.cfi_restore 20
	lw	s5,40(sp)
	.cfi_restore 21
	lw	s6,36(sp)
	.cfi_restore 22
	lw	s7,32(sp)
	.cfi_restore 23
	addi	sp,sp,64
	.cfi_def_cfa_register 2
	jr	ra
	.cfi_endproc
.LFE30:
	.size	localtime_r, .-localtime_r
	.align	1
	.globl	localtime
	.type	localtime, @function
localtime:
.LFB31:
	.loc 1 243 1
	.cfi_startproc
	addi	sp,sp,-32
	.cfi_def_cfa_offset 32
	sw	ra,28(sp)
	sw	s0,24(sp)
	.cfi_offset 1, -4
	.cfi_offset 8, -8
	addi	s0,sp,32
	.cfi_def_cfa 8, 0
	sw	a0,-20(s0)
	.loc 1 245 12
	lla	a1,tmp.3805
	lw	a0,-20(s0)
	call	localtime_r
	mv	a5,a0
	.loc 1 246 1
	mv	a0,a5
	lw	ra,28(sp)
	.cfi_restore 1
	lw	s0,24(sp)
	.cfi_restore 8
	addi	sp,sp,32
	.cfi_def_cfa_register 2
	jr	ra
	.cfi_endproc
.LFE31:
	.size	localtime, .-localtime
	.align	1
	.globl	mktime
	.type	mktime, @function
mktime:
.LFB32:
	.loc 1 250 1
	.cfi_startproc
	addi	sp,sp,-64
	.cfi_def_cfa_offset 64
	sw	ra,60(sp)
	sw	s0,56(sp)
	sw	s2,52(sp)
	sw	s3,48(sp)
	sw	s4,44(sp)
	sw	s5,40(sp)
	.cfi_offset 1, -4
	.cfi_offset 8, -8
	.cfi_offset 18, -12
	.cfi_offset 19, -16
	.cfi_offset 20, -20
	.cfi_offset 21, -24
	addi	s0,sp,64
	.cfi_def_cfa 8, 0
	sw	a0,-52(s0)
	.loc 1 253 17
	lw	a0,-52(s0)
	call	timegm
	sw	a0,-40(s0)
	sw	a1,-36(s0)
	.loc 1 254 44
	call	tz_get
	mv	a5,a0
	.loc 1 254 36
	mv	s4,a5
	srai	a5,a5,31
	mv	s5,a5
	.loc 1 254 34
	li	a5,-4096
	addi	a5,a5,496
	mul	a4,s5,a5
	li	a5,-1
	mul	a5,s4,a5
	add	a4,a4,a5
	li	a5,-4096
	addi	a5,a5,496
	mul	a3,s4,a5
	mulhu	s3,s4,a5
	mv	s2,a3
	add	a5,a4,s3
	mv	s3,a5
	.loc 1 254 15
	lw	a3,-40(s0)
	lw	a4,-36(s0)
	add	a5,a3,s2
	mv	a2,a5
	sltu	a2,a2,a3
	add	a6,a4,s3
	add	a4,a2,a6
	mv	a6,a4
	sw	a5,-40(s0)
	sw	a6,-36(s0)
	.loc 1 255 12
	lw	a5,-40(s0)
	lw	a6,-36(s0)
	.loc 1 256 1
	mv	a0,a5
	mv	a1,a6
	lw	ra,60(sp)
	.cfi_restore 1
	lw	s0,56(sp)
	.cfi_restore 8
	lw	s2,52(sp)
	.cfi_restore 18
	lw	s3,48(sp)
	.cfi_restore 19
	lw	s4,44(sp)
	.cfi_restore 20
	lw	s5,40(sp)
	.cfi_restore 21
	addi	sp,sp,64
	.cfi_def_cfa_register 2
	jr	ra
	.cfi_endproc
.LFE32:
	.size	mktime, .-mktime
	.align	1
	.globl	asctime_r
	.type	asctime_r, @function
asctime_r:
.LFB33:
	.loc 1 260 1
	.cfi_startproc
	addi	sp,sp,-32
	.cfi_def_cfa_offset 32
	sw	ra,28(sp)
	sw	s0,24(sp)
	.cfi_offset 1, -4
	.cfi_offset 8, -8
	addi	s0,sp,32
	.cfi_def_cfa 8, 0
	sw	a0,-20(s0)
	sw	a1,-24(s0)
	.loc 1 261 7
	lw	a5,-20(s0)
	beqz	a5,.L46
	.loc 1 261 15 discriminator 1
	lw	a5,-24(s0)
	bnez	a5,.L47
.L46:
	.loc 1 263 9
	li	a0,14
	call	rt_set_errno
	.loc 1 264 16
	li	a5,0
	j	.L48
.L47:
	.loc 1 267 5
	li	a2,26
	li	a1,0
	lw	a0,-24(s0)
	call	rt_memset
	.loc 1 270 14
	lla	a5,days
	lw	a5,0(a5)
	mv	a0,a5
	call	rt_strlen
	mv	a5,a0
	.loc 1 270 9
	mv	a4,a5
	.loc 1 270 35
	lw	a5,-20(s0)
	lw	a5,24(a5)
	.loc 1 270 45
	slli	a5,a5,2
	.loc 1 270 8
	ble	a4,a5,.L49
	.loc 1 270 59 discriminator 1
	lla	a5,months
	lw	a5,0(a5)
	mv	a0,a5
	call	rt_strlen
	mv	a5,a0
	.loc 1 270 54 discriminator 1
	mv	a4,a5
	.loc 1 270 82 discriminator 1
	lw	a5,-20(s0)
	lw	a5,16(a5)
	.loc 1 270 91 discriminator 1
	slli	a5,a5,2
	.loc 1 270 51 discriminator 1
	bgt	a4,a5,.L50
.L49:
	.loc 1 273 24
	lla	a5,days
	lw	a5,0(a5)
	.loc 1 273 23
	lw	a4,0(a5)
	.loc 1 273 21
	lw	a5,-24(s0)
	sw	a4,0(a5)
	.loc 1 274 30
	lla	a5,months
	lw	a4,0(a5)
	.loc 1 274 22
	lw	a5,-24(s0)
	addi	a5,a5,4
	.loc 1 274 29
	lw	a4,0(a4)
	.loc 1 274 27
	sw	a4,0(a5)
	.loc 1 275 9
	lw	a5,-24(s0)
	addi	a4,a5,8
	lw	a5,-20(s0)
	lw	a5,12(a5)
	mv	a1,a5
	mv	a0,a4
	call	num2str
	.loc 1 276 16
	lw	a5,-24(s0)
	addi	a5,a5,8
	lbu	a4,0(a5)
	.loc 1 276 12
	li	a5,48
	bne	a4,a5,.L51
	.loc 1 277 16
	lw	a5,-24(s0)
	addi	a5,a5,8
	.loc 1 277 20
	li	a4,32
	sb	a4,0(a5)
.L51:
	.loc 1 278 12
	lw	a5,-24(s0)
	addi	a5,a5,10
	.loc 1 278 17
	li	a4,32
	sb	a4,0(a5)
	.loc 1 279 9
	lw	a5,-24(s0)
	addi	a4,a5,11
	lw	a5,-20(s0)
	lw	a5,8(a5)
	mv	a1,a5
	mv	a0,a4
	call	num2str
	.loc 1 280 12
	lw	a5,-24(s0)
	addi	a5,a5,13
	.loc 1 280 17
	li	a4,58
	sb	a4,0(a5)
	.loc 1 281 9
	lw	a5,-24(s0)
	addi	a4,a5,14
	lw	a5,-20(s0)
	lw	a5,4(a5)
	mv	a1,a5
	mv	a0,a4
	call	num2str
	.loc 1 282 12
	lw	a5,-24(s0)
	addi	a5,a5,16
	.loc 1 282 17
	li	a4,58
	sb	a4,0(a5)
	.loc 1 283 9
	lw	a5,-24(s0)
	addi	a4,a5,17
	lw	a5,-20(s0)
	lw	a5,0(a5)
	mv	a1,a5
	mv	a0,a4
	call	num2str
	.loc 1 284 12
	lw	a5,-24(s0)
	addi	a5,a5,19
	.loc 1 284 17
	li	a4,32
	sb	a4,0(a5)
	.loc 1 285 9
	lw	a5,-24(s0)
	addi	a5,a5,20
	li	a1,20
	mv	a0,a5
	call	num2str
	.loc 1 286 9
	lw	a5,-24(s0)
	addi	a5,a5,22
	li	a1,0
	mv	a0,a5
	call	num2str
	.loc 1 287 12
	lw	a5,-24(s0)
	addi	a5,a5,24
	.loc 1 287 17
	li	a4,10
	sb	a4,0(a5)
	.loc 1 288 12
	lw	a5,-24(s0)
	addi	a5,a5,25
	.loc 1 288 17
	sb	zero,0(a5)
	.loc 1 289 16
	lw	a5,-24(s0)
	j	.L48
.L50:
	.loc 1 293 20
	lla	a5,days
	lw	a5,0(a5)
	.loc 1 293 37
	lw	a4,-20(s0)
	lw	a4,24(a4)
	.loc 1 293 47
	slli	a4,a4,2
	.loc 1 293 33
	add	a5,a5,a4
	.loc 1 293 19
	lw	a4,0(a5)
	.loc 1 293 17
	lw	a5,-24(s0)
	sw	a4,0(a5)
	.loc 1 294 26
	lla	a5,months
	lw	a5,0(a5)
	.loc 1 294 45
	lw	a4,-20(s0)
	lw	a4,16(a4)
	.loc 1 294 54
	slli	a4,a4,2
	.loc 1 294 41
	add	a4,a5,a4
	.loc 1 294 18
	lw	a5,-24(s0)
	addi	a5,a5,4
	.loc 1 294 25
	lw	a4,0(a4)
	.loc 1 294 23
	sw	a4,0(a5)
	.loc 1 295 5
	lw	a5,-24(s0)
	addi	a4,a5,8
	lw	a5,-20(s0)
	lw	a5,12(a5)
	mv	a1,a5
	mv	a0,a4
	call	num2str
	.loc 1 296 12
	lw	a5,-24(s0)
	addi	a5,a5,8
	lbu	a4,0(a5)
	.loc 1 296 8
	li	a5,48
	bne	a4,a5,.L52
	.loc 1 297 12
	lw	a5,-24(s0)
	addi	a5,a5,8
	.loc 1 297 16
	li	a4,32
	sb	a4,0(a5)
.L52:
	.loc 1 298 8
	lw	a5,-24(s0)
	addi	a5,a5,10
	.loc 1 298 13
	li	a4,32
	sb	a4,0(a5)
	.loc 1 299 5
	lw	a5,-24(s0)
	addi	a4,a5,11
	lw	a5,-20(s0)
	lw	a5,8(a5)
	mv	a1,a5
	mv	a0,a4
	call	num2str
	.loc 1 300 8
	lw	a5,-24(s0)
	addi	a5,a5,13
	.loc 1 300 13
	li	a4,58
	sb	a4,0(a5)
	.loc 1 301 5
	lw	a5,-24(s0)
	addi	a4,a5,14
	lw	a5,-20(s0)
	lw	a5,4(a5)
	mv	a1,a5
	mv	a0,a4
	call	num2str
	.loc 1 302 8
	lw	a5,-24(s0)
	addi	a5,a5,16
	.loc 1 302 13
	li	a4,58
	sb	a4,0(a5)
	.loc 1 303 5
	lw	a5,-24(s0)
	addi	a4,a5,17
	lw	a5,-20(s0)
	lw	a5,0(a5)
	mv	a1,a5
	mv	a0,a4
	call	num2str
	.loc 1 304 8
	lw	a5,-24(s0)
	addi	a5,a5,19
	.loc 1 304 13
	li	a4,32
	sb	a4,0(a5)
	.loc 1 305 5
	lw	a5,-24(s0)
	addi	a3,a5,20
	.loc 1 305 25
	lw	a5,-20(s0)
	lw	a5,20(a5)
	.loc 1 305 35
	addi	a4,a5,1900
	.loc 1 305 5
	li	a5,100
	div	a5,a4,a5
	mv	a1,a5
	mv	a0,a3
	call	num2str
	.loc 1 306 5
	lw	a5,-24(s0)
	addi	a3,a5,22
	.loc 1 306 25
	lw	a5,-20(s0)
	lw	a5,20(a5)
	.loc 1 306 35
	addi	a4,a5,1900
	.loc 1 306 5
	li	a5,100
	rem	a5,a4,a5
	mv	a1,a5
	mv	a0,a3
	call	num2str
	.loc 1 307 8
	lw	a5,-24(s0)
	addi	a5,a5,24
	.loc 1 307 13
	li	a4,10
	sb	a4,0(a5)
	.loc 1 308 8
	lw	a5,-24(s0)
	addi	a5,a5,25
	.loc 1 308 13
	sb	zero,0(a5)
	.loc 1 309 12
	lw	a5,-24(s0)
.L48:
	.loc 1 310 1
	mv	a0,a5
	lw	ra,28(sp)
	.cfi_restore 1
	lw	s0,24(sp)
	.cfi_restore 8
	addi	sp,sp,32
	.cfi_def_cfa_register 2
	jr	ra
	.cfi_endproc
.LFE33:
	.size	asctime_r, .-asctime_r
	.align	1
	.globl	asctime
	.type	asctime, @function
asctime:
.LFB34:
	.loc 1 314 1
	.cfi_startproc
	addi	sp,sp,-32
	.cfi_def_cfa_offset 32
	sw	ra,28(sp)
	sw	s0,24(sp)
	.cfi_offset 1, -4
	.cfi_offset 8, -8
	addi	s0,sp,32
	.cfi_def_cfa 8, 0
	sw	a0,-20(s0)
	.loc 1 316 12
	lla	a1,buf.3817
	lw	a0,-20(s0)
	call	asctime_r
	mv	a5,a0
	.loc 1 317 1
	mv	a0,a5
	lw	ra,28(sp)
	.cfi_restore 1
	lw	s0,24(sp)
	.cfi_restore 8
	addi	sp,sp,32
	.cfi_def_cfa_register 2
	jr	ra
	.cfi_endproc
.LFE34:
	.size	asctime, .-asctime
	.align	1
	.globl	ctime_r
	.type	ctime_r, @function
ctime_r:
.LFB35:
	.loc 1 321 1
	.cfi_startproc
	addi	sp,sp,-80
	.cfi_def_cfa_offset 80
	sw	ra,76(sp)
	sw	s0,72(sp)
	.cfi_offset 1, -4
	.cfi_offset 8, -8
	addi	s0,sp,80
	.cfi_def_cfa 8, 0
	sw	a0,-68(s0)
	sw	a1,-72(s0)
	.loc 1 323 22
	addi	a5,s0,-52
	mv	a1,a5
	lw	a0,-68(s0)
	call	localtime_r
	mv	a5,a0
	.loc 1 323 12
	lw	a1,-72(s0)
	mv	a0,a5
	call	asctime_r
	mv	a5,a0
	.loc 1 324 1
	mv	a0,a5
	lw	ra,76(sp)
	.cfi_restore 1
	lw	s0,72(sp)
	.cfi_restore 8
	addi	sp,sp,80
	.cfi_def_cfa_register 2
	jr	ra
	.cfi_endproc
.LFE35:
	.size	ctime_r, .-ctime_r
	.align	1
	.globl	ctime
	.type	ctime, @function
ctime:
.LFB36:
	.loc 1 328 1
	.cfi_startproc
	addi	sp,sp,-32
	.cfi_def_cfa_offset 32
	sw	ra,28(sp)
	sw	s0,24(sp)
	.cfi_offset 1, -4
	.cfi_offset 8, -8
	addi	s0,sp,32
	.cfi_def_cfa 8, 0
	sw	a0,-20(s0)
	.loc 1 329 20
	lw	a0,-20(s0)
	call	localtime
	mv	a5,a0
	.loc 1 329 12
	mv	a0,a5
	call	asctime
	mv	a5,a0
	.loc 1 330 1
	mv	a0,a5
	lw	ra,28(sp)
	.cfi_restore 1
	lw	s0,24(sp)
	.cfi_restore 8
	addi	sp,sp,32
	.cfi_def_cfa_register 2
	jr	ra
	.cfi_endproc
.LFE36:
	.size	ctime, .-ctime
	.globl	__floatdidf
	.align	1
	.globl	difftime
	.type	difftime, @function
difftime:
.LFB37:
	.loc 1 335 1
	.cfi_startproc
	addi	sp,sp,-32
	.cfi_def_cfa_offset 32
	sw	ra,28(sp)
	sw	s0,24(sp)
	.cfi_offset 1, -4
	.cfi_offset 8, -8
	addi	s0,sp,32
	.cfi_def_cfa 8, 0
	sw	a0,-24(s0)
	sw	a1,-20(s0)
	sw	a2,-32(s0)
	sw	a3,-28(s0)
	.loc 1 336 27
	lw	a5,-24(s0)
	lw	a6,-20(s0)
	lw	a1,-32(s0)
	lw	a2,-28(s0)
	sub	a3,a5,a1
	mv	a0,a3
	sgtu	a0,a0,a5
	sub	a4,a6,a2
	sub	a5,a4,a0
	mv	a4,a5
	mv	a5,a3
	mv	a6,a4
	.loc 1 336 12
	mv	a0,a5
	mv	a1,a6
	call	__floatdidf
.LVL2:
	mv	a5,a0
	mv	a6,a1
	.loc 1 337 1
	mv	a0,a5
	mv	a1,a6
	lw	ra,28(sp)
	.cfi_restore 1
	lw	s0,24(sp)
	.cfi_restore 8
	addi	sp,sp,32
	.cfi_def_cfa_register 2
	jr	ra
	.cfi_endproc
.LFE37:
	.size	difftime, .-difftime
	.align	1
	.weak	time
	.type	time, @function
time:
.LFB38:
	.loc 1 353 1
	.cfi_startproc
	addi	sp,sp,-48
	.cfi_def_cfa_offset 48
	sw	ra,44(sp)
	sw	s0,40(sp)
	.cfi_offset 1, -4
	.cfi_offset 8, -8
	addi	s0,sp,48
	.cfi_def_cfa 8, 0
	sw	a0,-36(s0)
	.loc 1 356 8
	addi	a5,s0,-32
	mv	a0,a5
	call	get_timeval
	mv	a5,a0
	.loc 1 356 7
	bnez	a5,.L62
	.loc 1 358 12
	lw	a5,-36(s0)
	beqz	a5,.L63
	.loc 1 360 21
	lw	a5,-32(s0)
	lw	a6,-28(s0)
	.loc 1 360 16
	lw	a4,-36(s0)
	sw	a5,0(a4)
	sw	a6,4(a4)
.L63:
	.loc 1 362 19
	lw	a5,-32(s0)
	lw	a6,-28(s0)
	j	.L65
.L62:
	.loc 1 366 9
	li	a0,14
	call	rt_set_errno
	.loc 1 367 16
	li	a5,-1
	li	a6,-1
.L65:
	.loc 1 369 1 discriminator 1
	mv	a0,a5
	mv	a1,a6
	lw	ra,44(sp)
	.cfi_restore 1
	lw	s0,40(sp)
	.cfi_restore 8
	addi	sp,sp,48
	.cfi_def_cfa_register 2
	jr	ra
	.cfi_endproc
.LFE38:
	.size	time, .-time
	.align	1
	.weak	clock
	.type	clock, @function
clock:
.LFB39:
	.loc 1 373 1
	.cfi_startproc
	addi	sp,sp,-16
	.cfi_def_cfa_offset 16
	sw	ra,12(sp)
	sw	s0,8(sp)
	.cfi_offset 1, -4
	.cfi_offset 8, -8
	addi	s0,sp,16
	.cfi_def_cfa 8, 0
	.loc 1 374 12
	call	rt_tick_get
	mv	a5,a0
	.loc 1 375 1
	mv	a0,a5
	lw	ra,12(sp)
	.cfi_restore 1
	lw	s0,8(sp)
	.cfi_restore 8
	addi	sp,sp,16
	.cfi_def_cfa_register 2
	jr	ra
	.cfi_endproc
.LFE39:
	.size	clock, .-clock
	.align	1
	.globl	stime
	.type	stime, @function
stime:
.LFB40:
	.loc 1 379 1
	.cfi_startproc
	addi	sp,sp,-48
	.cfi_def_cfa_offset 48
	sw	ra,44(sp)
	sw	s0,40(sp)
	.cfi_offset 1, -4
	.cfi_offset 8, -8
	addi	s0,sp,48
	.cfi_def_cfa 8, 0
	sw	a0,-36(s0)
	.loc 1 382 8
	lw	a5,-36(s0)
	bnez	a5,.L69
	.loc 1 384 9
	li	a0,14
	call	rt_set_errno
	.loc 1 385 16
	li	a5,-1
	j	.L72
.L69:
	.loc 1 388 17
	lw	a5,-36(s0)
	lw	a6,4(a5)
	lw	a5,0(a5)
	.loc 1 388 15
	sw	a5,-32(s0)
	sw	a6,-28(s0)
	.loc 1 389 16
	sw	zero,-24(s0)
	.loc 1 390 9
	addi	a5,s0,-32
	mv	a0,a5
	call	set_timeval
	mv	a5,a0
	.loc 1 390 8
	bnez	a5,.L71
	.loc 1 392 16
	li	a5,0
	j	.L72
.L71:
	.loc 1 396 9
	li	a0,14
	call	rt_set_errno
	.loc 1 397 16
	li	a5,-1
.L72:
	.loc 1 399 1 discriminator 1
	mv	a0,a5
	lw	ra,44(sp)
	.cfi_restore 1
	lw	s0,40(sp)
	.cfi_restore 8
	addi	sp,sp,48
	.cfi_def_cfa_register 2
	jr	ra
	.cfi_endproc
.LFE40:
	.size	stime, .-stime
	.align	1
	.globl	timegm
	.type	timegm, @function
timegm:
.LFB41:
	.loc 1 403 1
	.cfi_startproc
	addi	sp,sp,-176
	.cfi_def_cfa_offset 176
	sw	ra,172(sp)
	sw	s0,168(sp)
	sw	s1,164(sp)
	sw	s2,160(sp)
	sw	s3,156(sp)
	sw	s4,152(sp)
	sw	s5,148(sp)
	sw	s6,144(sp)
	sw	s7,140(sp)
	sw	s8,136(sp)
	sw	s9,132(sp)
	sw	s10,128(sp)
	sw	s11,124(sp)
	.cfi_offset 1, -4
	.cfi_offset 8, -8
	.cfi_offset 9, -12
	.cfi_offset 18, -16
	.cfi_offset 19, -20
	.cfi_offset 20, -24
	.cfi_offset 21, -28
	.cfi_offset 22, -32
	.cfi_offset 23, -36
	.cfi_offset 24, -40
	.cfi_offset 25, -44
	.cfi_offset 26, -48
	.cfi_offset 27, -52
	addi	s0,sp,176
	.cfi_def_cfa 8, 0
	sw	a0,-100(s0)
	.loc 1 408 7
	lw	a5,-100(s0)
	bnez	a5,.L74
	.loc 1 410 9
	li	a0,14
	call	rt_set_errno
	.loc 1 411 16
	li	a5,-1
	li	a6,-1
	j	.L75
.L74:
	.loc 1 414 22
	lw	a5,-100(s0)
	lw	a5,20(a5)
	.loc 1 414 13
	mv	t1,a5
	srai	a5,a5,31
	mv	t2,a5
	.loc 1 414 11
	li	a5,-70
	li	a6,-1
	add	a3,t1,a5
	mv	a2,a3
	sltu	a2,a2,t1
	add	a4,t2,a6
	add	a5,a2,a4
	mv	a4,a5
	sw	a3,-80(s0)
	sw	a4,-76(s0)
	.loc 1 415 10
	lw	a5,-100(s0)
	lw	a4,0(a5)
	.loc 1 415 8
	li	a5,60
	ble	a4,a5,.L76
	.loc 1 417 19
	lw	a5,-100(s0)
	lw	a3,4(a5)
	.loc 1 417 23
	lw	a5,-100(s0)
	lw	a4,0(a5)
	.loc 1 417 32
	li	a5,60
	div	a5,a4,a5
	.loc 1 417 19
	add	a4,a3,a5
	lw	a5,-100(s0)
	sw	a4,4(a5)
	.loc 1 418 19
	lw	a5,-100(s0)
	lw	a4,0(a5)
	li	a5,60
	rem	a4,a4,a5
	lw	a5,-100(s0)
	sw	a4,0(a5)
.L76:
	.loc 1 420 10
	lw	a5,-100(s0)
	lw	a4,4(a5)
	.loc 1 420 8
	li	a5,59
	ble	a4,a5,.L77
	.loc 1 422 20
	lw	a5,-100(s0)
	lw	a3,8(a5)
	.loc 1 422 24
	lw	a5,-100(s0)
	lw	a4,4(a5)
	.loc 1 422 33
	li	a5,60
	div	a5,a4,a5
	.loc 1 422 20
	add	a4,a3,a5
	lw	a5,-100(s0)
	sw	a4,8(a5)
	.loc 1 423 19
	lw	a5,-100(s0)
	lw	a4,4(a5)
	li	a5,60
	rem	a4,a4,a5
	lw	a5,-100(s0)
	sw	a4,4(a5)
.L77:
	.loc 1 425 10
	lw	a5,-100(s0)
	lw	a4,8(a5)
	.loc 1 425 8
	li	a5,23
	ble	a4,a5,.L78
	.loc 1 427 20
	lw	a5,-100(s0)
	lw	a3,12(a5)
	.loc 1 427 24
	lw	a5,-100(s0)
	lw	a4,8(a5)
	.loc 1 427 34
	li	a5,24
	div	a5,a4,a5
	.loc 1 427 20
	add	a4,a3,a5
	lw	a5,-100(s0)
	sw	a4,12(a5)
	.loc 1 428 20
	lw	a5,-100(s0)
	lw	a4,8(a5)
	li	a5,24
	rem	a4,a4,a5
	lw	a5,-100(s0)
	sw	a4,8(a5)
.L78:
	.loc 1 430 10
	lw	a5,-100(s0)
	lw	a4,16(a5)
	.loc 1 430 8
	li	a5,11
	ble	a4,a5,.L80
	.loc 1 432 20
	lw	a5,-100(s0)
	lw	a3,20(a5)
	.loc 1 432 24
	lw	a5,-100(s0)
	lw	a4,16(a5)
	.loc 1 432 33
	li	a5,12
	div	a5,a4,a5
	.loc 1 432 20
	add	a4,a3,a5
	lw	a5,-100(s0)
	sw	a4,20(a5)
	.loc 1 433 19
	lw	a5,-100(s0)
	lw	a4,16(a5)
	li	a5,12
	rem	a4,a4,a5
	lw	a5,-100(s0)
	sw	a4,16(a5)
	.loc 1 435 11
	j	.L80
.L82:
	.loc 1 437 14
	lw	a5,-100(s0)
	lw	a4,16(a5)
	.loc 1 437 12
	li	a5,1
	bne	a4,a5,.L81
	.loc 1 437 41 discriminator 1
	lw	a5,-100(s0)
	lw	a5,20(a5)
	.loc 1 437 31 discriminator 1
	addi	a5,a5,1900
	mv	a0,a5
	call	__isleap
	mv	a5,a0
	.loc 1 437 28 discriminator 1
	beqz	a5,.L81
	.loc 1 439 16
	lw	a5,-100(s0)
	lw	a5,12(a5)
	.loc 1 439 13
	addi	a4,a5,-1
	lw	a5,-100(s0)
	sw	a4,12(a5)
.L81:
	.loc 1 441 20
	lw	a5,-100(s0)
	lw	a3,12(a5)
	.loc 1 441 30
	lw	a5,-100(s0)
	lw	a5,16(a5)
	.loc 1 441 28
	lla	a4,__spm
	slli	a5,a5,1
	add	a5,a4,a5
	lh	a5,0(a5)
	.loc 1 441 20
	sub	a4,a3,a5
	lw	a5,-100(s0)
	sw	a4,12(a5)
	.loc 1 442 12
	lw	a5,-100(s0)
	lw	a5,16(a5)
	.loc 1 442 9
	addi	a4,a5,1
	lw	a5,-100(s0)
	sw	a4,16(a5)
	.loc 1 443 14
	lw	a5,-100(s0)
	lw	a4,16(a5)
	.loc 1 443 12
	li	a5,11
	ble	a4,a5,.L80
	.loc 1 445 23
	lw	a5,-100(s0)
	sw	zero,16(a5)
	.loc 1 446 16
	lw	a5,-100(s0)
	lw	a5,20(a5)
	.loc 1 446 13
	addi	a4,a5,1
	lw	a5,-100(s0)
	sw	a4,20(a5)
.L80:
	.loc 1 435 13
	lw	a5,-100(s0)
	lw	a3,12(a5)
	.loc 1 435 36
	lw	a5,-100(s0)
	lw	a5,16(a5)
	.loc 1 435 33
	addi	a5,a5,1
	.loc 1 435 30
	lla	a4,__spm
	slli	a5,a5,1
	add	a5,a4,a5
	lh	a5,0(a5)
	.loc 1 435 11
	bgt	a3,a5,.L82
	.loc 1 450 10
	lw	a5,-100(s0)
	lw	a4,20(a5)
	.loc 1 450 8
	li	a5,69
	bgt	a4,a5,.L83
	.loc 1 452 9
	li	a0,22
	call	rt_set_errno
	.loc 1 453 16
	li	a5,-1
	li	a6,-1
	j	.L75
.L83:
	.loc 1 457 17
	lw	a4,-76(s0)
	li	a5,365
	mul	a3,a4,a5
	lw	a4,-80(s0)
	li	a5,0
	mul	a5,a4,a5
	add	a2,a3,a5
	lw	a4,-80(s0)
	li	a5,365
	mul	a3,a4,a5
	mulhu	s9,a4,a5
	mv	s8,a3
	add	a5,a2,s9
	mv	s9,a5
	.loc 1 457 32
	lw	a5,-80(s0)
	lw	a6,-76(s0)
	li	a3,1
	li	a4,0
	add	a0,a5,a3
	mv	a2,a0
	sltu	a2,a2,a5
	add	a1,a6,a4
	add	a5,a2,a1
	mv	a1,a5
	mv	a2,a0
	mv	a3,a1
	.loc 1 457 37
	srai	a5,a3,31
	sw	a5,-168(s0)
	srai	a5,a5,31
	sw	a5,-164(s0)
	lw	a5,-168(s0)
	lw	a6,-164(s0)
	mv	a4,a5
	andi	s10,a4,3
	mv	a5,a6
	andi	s11,a5,0
	add	a5,s10,a2
	mv	a4,a5
	sltu	a4,a4,s10
	add	a6,s11,a3
	add	a4,a4,a6
	mv	a6,a4
	slli	a4,a6,30
	srli	a3,a5,2
	sw	a3,-112(s0)
	lw	a3,-112(s0)
	or	a4,a4,a3
	sw	a4,-112(s0)
	srai	a5,a6,2
	sw	a5,-108(s0)
	lw	a3,-112(s0)
	lw	a4,-108(s0)
	.loc 1 457 9
	add	a5,s8,a3
	mv	a2,a5
	sltu	a2,a2,s8
	add	a6,s9,a4
	add	a4,a2,a6
	mv	a6,a4
	sw	a5,-72(s0)
	sw	a6,-68(s0)
	.loc 1 463 8
	lw	a5,-76(s0)
	bgtz	a5,.L87
	lw	a5,-76(s0)
	bnez	a5,.L84
	lw	a4,-80(s0)
	li	a5,130
	bleu	a4,a5,.L84
.L87:
	.loc 1 465 15
	lw	a3,-80(s0)
	lw	a4,-76(s0)
	li	a1,-131
	li	a2,-1
	add	a5,a3,a1
	mv	a0,a5
	sltu	a0,a0,a3
	add	a6,a4,a2
	add	a4,a0,a6
	mv	a6,a4
	sw	a5,-80(s0)
	sw	a6,-76(s0)
	.loc 1 466 15
	lw	a5,-80(s0)
	lw	a6,-76(s0)
	li	a2,100
	li	a3,0
	mv	a0,a5
	mv	a1,a6
	call	__divdi3
.LVL3:
	mv	a5,a0
	mv	a6,a1
	sw	a5,-80(s0)
	sw	a6,-76(s0)
	.loc 1 467 23
	lw	a5,-76(s0)
	slli	a5,a5,30
	lw	a4,-80(s0)
	srli	s2,a4,2
	or	s2,a5,s2
	lw	a5,-76(s0)
	srai	s3,a5,2
	.loc 1 467 29
	mv	a5,s2
	mv	a6,s3
	srli	a4,a5,31
	slli	a3,a6,1
	sw	a3,-116(s0)
	lw	a3,-116(s0)
	or	a4,a4,a3
	sw	a4,-116(s0)
	slli	a5,a5,1
	sw	a5,-120(s0)
	lw	a5,-120(s0)
	lw	a6,-116(s0)
	add	a3,a5,s2
	mv	a2,a3
	sltu	a2,a2,a5
	add	a4,a6,s3
	add	a5,a2,a4
	mv	a4,a5
	.loc 1 467 33
	li	a1,1
	li	a2,0
	add	a5,a3,a1
	mv	a0,a5
	sltu	a0,a0,a3
	add	a6,a4,a2
	add	a4,a0,a6
	mv	a6,a4
	mv	a1,a5
	mv	a2,a6
	.loc 1 467 13
	lw	a3,-72(s0)
	lw	a4,-68(s0)
	sub	a5,a3,a1
	mv	a0,a5
	sgtu	a0,a0,a3
	sub	a6,a4,a2
	sub	a4,a6,a0
	mv	a6,a4
	sw	a5,-72(s0)
	sw	a6,-68(s0)
	.loc 1 468 20
	lw	a5,-80(s0)
	andi	a5,a5,3
	sw	a5,-80(s0)
	lw	a5,-76(s0)
	andi	a5,a5,0
	sw	a5,-76(s0)
	.loc 1 468 12
	lw	a4,-80(s0)
	li	a5,3
	bne	a4,a5,.L86
	lw	a5,-76(s0)
	bnez	a5,.L86
	.loc 1 469 18
	lw	a3,-80(s0)
	lw	a4,-76(s0)
	li	a1,-1
	li	a2,-1
	add	a5,a3,a1
	mv	a0,a5
	sltu	a0,a0,a3
	add	a6,a4,a2
	add	a4,a0,a6
	mv	a6,a4
	sw	a5,-80(s0)
	sw	a6,-76(s0)
.L86:
	.loc 1 470 13
	lw	a3,-72(s0)
	lw	a4,-68(s0)
	lw	a1,-80(s0)
	lw	a2,-76(s0)
	sub	a5,a3,a1
	mv	a0,a5
	sgtu	a0,a0,a3
	sub	a6,a4,a2
	sub	a4,a6,a0
	mv	a6,a4
	sw	a5,-72(s0)
	sw	a6,-68(s0)
.L84:
	.loc 1 473 32
	lw	a5,-100(s0)
	lw	a5,16(a5)
	.loc 1 473 30
	lla	a4,__spm
	slli	a5,a5,1
	add	a5,a4,a5
	lh	a5,0(a5)
	mv	a4,a5
	.loc 1 473 45
	lw	a5,-100(s0)
	lw	a5,12(a5)
	.loc 1 473 42
	add	a5,a4,a5
	.loc 1 473 55
	addi	s1,a5,-1
	.loc 1 474 36
	lw	a5,-100(s0)
	lw	a5,20(a5)
	.loc 1 474 26
	addi	a5,a5,1900
	mv	a0,a5
	call	__isleap
	mv	a4,a0
	.loc 1 474 58
	lw	a5,-100(s0)
	lw	a5,16(a5)
	.loc 1 474 67
	slti	a5,a5,2
	xori	a5,a5,1
	andi	a5,a5,0xff
	.loc 1 474 54
	and	a5,a4,a5
	.loc 1 473 59
	add	a4,s1,a5
	.loc 1 473 23
	lw	a5,-100(s0)
	sw	a4,28(a5)
	.loc 1 473 13
	lw	a5,-100(s0)
	lw	a5,28(a5)
	.loc 1 473 23
	sw	a5,-136(s0)
	srai	a5,a5,31
	sw	a5,-132(s0)
	.loc 1 473 9
	lw	a3,-72(s0)
	lw	a4,-68(s0)
	lw	a0,-136(s0)
	lw	a1,-132(s0)
	mv	a2,a0
	add	a5,a3,a2
	mv	a2,a5
	sltu	a2,a2,a3
	add	a6,a4,a1
	add	a4,a2,a6
	mv	a6,a4
	sw	a5,-72(s0)
	sw	a6,-68(s0)
	.loc 1 477 7
	li	a5,7
	li	a6,0
	sw	a5,-88(s0)
	sw	a6,-84(s0)
	.loc 1 478 29
	lw	a5,-72(s0)
	lw	a6,-68(s0)
	li	a1,4
	li	a2,0
	add	a3,a5,a1
	mv	a0,a3
	sltu	a0,a0,a5
	add	a4,a6,a2
	add	a5,a0,a4
	mv	a4,a5
	mv	a5,a3
	mv	a6,a4
	.loc 1 478 34
	lw	a2,-88(s0)
	lw	a3,-84(s0)
	mv	a0,a5
	mv	a1,a6
	call	__moddi3
.LVL4:
	mv	a5,a0
	mv	a6,a1
	.loc 1 478 18
	mv	a4,a5
	.loc 1 478 16
	lw	a5,-100(s0)
	sw	a4,24(a5)
	.loc 1 480 7
	li	a5,24
	li	a6,0
	sw	a5,-88(s0)
	sw	a6,-84(s0)
	.loc 1 481 9
	lw	a4,-68(s0)
	lw	a5,-88(s0)
	mul	a4,a4,a5
	lw	a3,-84(s0)
	lw	a5,-72(s0)
	mul	a5,a3,a5
	add	a3,a4,a5
	lw	a4,-72(s0)
	lw	a5,-88(s0)
	mul	a2,a4,a5
	mulhu	a5,a4,a5
	sw	a5,-124(s0)
	sw	a2,-128(s0)
	lw	a5,-124(s0)
	add	a5,a3,a5
	sw	a5,-124(s0)
	lw	a5,-128(s0)
	lw	a6,-124(s0)
	sw	a5,-72(s0)
	sw	a6,-68(s0)
	sw	a5,-72(s0)
	sw	a6,-68(s0)
	.loc 1 482 7
	li	a5,60
	li	a6,0
	sw	a5,-88(s0)
	sw	a6,-84(s0)
	.loc 1 483 21
	lw	a5,-100(s0)
	lw	a5,8(a5)
	sw	a5,-144(s0)
	srai	a5,a5,31
	sw	a5,-140(s0)
	.loc 1 483 18
	lw	a3,-72(s0)
	lw	a4,-68(s0)
	lw	a0,-144(s0)
	lw	a1,-140(s0)
	mv	a2,a0
	add	a5,a2,a3
	mv	a2,a5
	mv	s1,a0
	sltu	a2,a2,s1
	add	a6,a1,a4
	add	a4,a2,a6
	mv	a6,a4
	.loc 1 483 32
	lw	a4,-88(s0)
	mul	a3,a4,a6
	lw	a4,-84(s0)
	mul	a4,a4,a5
	add	a3,a3,a4
	lw	a4,-88(s0)
	mul	a2,a4,a5
	mulhu	s7,a4,a5
	mv	s6,a2
	add	a5,a3,s7
	mv	s7,a5
	.loc 1 483 39
	lw	a5,-100(s0)
	lw	a5,4(a5)
	sw	a5,-152(s0)
	srai	a5,a5,31
	sw	a5,-148(s0)
	.loc 1 483 36
	lw	a2,-152(s0)
	lw	a3,-148(s0)
	mv	a4,a2
	add	a5,s6,a4
	mv	a4,a5
	sltu	a4,a4,s6
	add	a6,s7,a3
	add	a4,a4,a6
	mv	a6,a4
	.loc 1 483 49
	lw	a4,-88(s0)
	mul	a3,a4,a6
	lw	a4,-84(s0)
	mul	a4,a4,a5
	add	a3,a3,a4
	lw	a4,-88(s0)
	mul	a2,a4,a5
	mulhu	s5,a4,a5
	mv	s4,a2
	add	a5,a3,s5
	mv	s5,a5
	.loc 1 483 56
	lw	a5,-100(s0)
	lw	a5,0(a5)
	sw	a5,-160(s0)
	srai	a5,a5,31
	sw	a5,-156(s0)
	.loc 1 483 53
	lw	a2,-160(s0)
	lw	a3,-156(s0)
	mv	a4,a2
	add	a5,s4,a4
	mv	a4,a5
	sltu	a4,a4,s4
	add	a6,s5,a3
	add	a4,a4,a6
	mv	a6,a4
.L75:
	.loc 1 484 1
	mv	a0,a5
	mv	a1,a6
	lw	ra,172(sp)
	.cfi_restore 1
	lw	s0,168(sp)
	.cfi_restore 8
	lw	s1,164(sp)
	.cfi_restore 9
	lw	s2,160(sp)
	.cfi_restore 18
	lw	s3,156(sp)
	.cfi_restore 19
	lw	s4,152(sp)
	.cfi_restore 20
	lw	s5,148(sp)
	.cfi_restore 21
	lw	s6,144(sp)
	.cfi_restore 22
	lw	s7,140(sp)
	.cfi_restore 23
	lw	s8,136(sp)
	.cfi_restore 24
	lw	s9,132(sp)
	.cfi_restore 25
	lw	s10,128(sp)
	.cfi_restore 26
	lw	s11,124(sp)
	.cfi_restore 27
	addi	sp,sp,176
	.cfi_def_cfa_register 2
	jr	ra
	.cfi_endproc
.LFE41:
	.size	timegm, .-timegm
	.align	1
	.globl	gettimeofday
	.type	gettimeofday, @function
gettimeofday:
.LFB42:
	.loc 1 488 1
	.cfi_startproc
	addi	sp,sp,-32
	.cfi_def_cfa_offset 32
	sw	ra,28(sp)
	sw	s0,24(sp)
	.cfi_offset 1, -4
	.cfi_offset 8, -8
	addi	s0,sp,32
	.cfi_def_cfa 8, 0
	sw	a0,-20(s0)
	sw	a1,-24(s0)
	.loc 1 494 7
	lw	a5,-24(s0)
	beqz	a5,.L89
	.loc 1 496 24
	lw	a5,-24(s0)
	sw	zero,4(a5)
	.loc 1 497 32
	call	tz_get
	mv	a5,a0
	mv	a4,a5
	.loc 1 497 30
	mv	a5,a4
	slli	a4,a4,4
	sub	a5,a5,a4
	slli	a5,a5,2
	mv	a4,a5
	.loc 1 497 28
	lw	a5,-24(s0)
	sw	a4,0(a5)
.L89:
	.loc 1 500 8
	lw	a5,-20(s0)
	beqz	a5,.L90
	.loc 1 500 20 discriminator 1
	lw	a0,-20(s0)
	call	get_timeval
	mv	a5,a0
	.loc 1 500 17 discriminator 1
	bnez	a5,.L90
	.loc 1 502 16
	li	a5,0
	j	.L91
.L90:
	.loc 1 506 9
	li	a0,22
	call	rt_set_errno
	.loc 1 507 16
	li	a5,-1
.L91:
	.loc 1 509 1
	mv	a0,a5
	lw	ra,28(sp)
	.cfi_restore 1
	lw	s0,24(sp)
	.cfi_restore 8
	addi	sp,sp,32
	.cfi_def_cfa_register 2
	jr	ra
	.cfi_endproc
.LFE42:
	.size	gettimeofday, .-gettimeofday
	.align	1
	.globl	settimeofday
	.type	settimeofday, @function
settimeofday:
.LFB43:
	.loc 1 513 1
	.cfi_startproc
	addi	sp,sp,-32
	.cfi_def_cfa_offset 32
	sw	ra,28(sp)
	sw	s0,24(sp)
	.cfi_offset 1, -4
	.cfi_offset 8, -8
	addi	s0,sp,32
	.cfi_def_cfa 8, 0
	sw	a0,-20(s0)
	sw	a1,-24(s0)
	.loc 1 519 8
	lw	a5,-20(s0)
	beqz	a5,.L93
	.loc 1 520 14
	lw	a5,-20(s0)
	lw	a5,8(a5)
	.loc 1 520 9
	bltz	a5,.L93
	.loc 1 521 12
	lw	a0,-20(s0)
	call	set_timeval
	mv	a5,a0
	.loc 1 521 9
	bnez	a5,.L93
	.loc 1 523 16
	li	a5,0
	j	.L94
.L93:
	.loc 1 527 9
	li	a0,22
	call	rt_set_errno
	.loc 1 528 16
	li	a5,-1
.L94:
	.loc 1 530 1
	mv	a0,a5
	lw	ra,28(sp)
	.cfi_restore 1
	lw	s0,24(sp)
	.cfi_restore 8
	addi	sp,sp,32
	.cfi_def_cfa_register 2
	jr	ra
	.cfi_endproc
.LFE43:
	.size	settimeofday, .-settimeofday
	.section	.sdata
	.type	_current_timezone, @object
	.size	_current_timezone, 1
_current_timezone:
	.byte	8
	.text
	.align	1
	.globl	tz_set
	.type	tz_set, @function
tz_set:
.LFB44:
	.loc 1 1308 1
	.cfi_startproc
	addi	sp,sp,-48
	.cfi_def_cfa_offset 48
	sw	ra,44(sp)
	sw	s0,40(sp)
	.cfi_offset 1, -4
	.cfi_offset 8, -8
	addi	s0,sp,48
	.cfi_def_cfa 8, 0
	mv	a5,a0
	sb	a5,-33(s0)
	.loc 1 1310 13
	call	rt_hw_interrupt_disable
	sw	a0,-20(s0)
	.loc 1 1311 23
	lla	a5,_current_timezone
	lbu	a4,-33(s0)
	sb	a4,0(a5)
	.loc 1 1312 5
	lw	a0,-20(s0)
	call	rt_hw_interrupt_enable
	.loc 1 1313 1
	nop
	lw	ra,44(sp)
	.cfi_restore 1
	lw	s0,40(sp)
	.cfi_restore 8
	addi	sp,sp,48
	.cfi_def_cfa_register 2
	jr	ra
	.cfi_endproc
.LFE44:
	.size	tz_set, .-tz_set
	.align	1
	.globl	tz_get
	.type	tz_get, @function
tz_get:
.LFB45:
	.loc 1 1316 1
	.cfi_startproc
	addi	sp,sp,-16
	.cfi_def_cfa_offset 16
	sw	s0,12(sp)
	.cfi_offset 8, -4
	addi	s0,sp,16
	.cfi_def_cfa 8, 0
	.loc 1 1317 12
	lla	a5,_current_timezone
	lbu	a5,0(a5)
	slli	a5,a5,24
	srai	a5,a5,24
	.loc 1 1318 1
	mv	a0,a5
	lw	s0,12(sp)
	.cfi_restore 8
	addi	sp,sp,16
	.cfi_def_cfa_register 2
	jr	ra
	.cfi_endproc
.LFE45:
	.size	tz_get, .-tz_get
	.align	1
	.globl	tz_is_dst
	.type	tz_is_dst, @function
tz_is_dst:
.LFB46:
	.loc 1 1321 1
	.cfi_startproc
	addi	sp,sp,-16
	.cfi_def_cfa_offset 16
	sw	s0,12(sp)
	.cfi_offset 8, -4
	addi	s0,sp,16
	.cfi_def_cfa 8, 0
	.loc 1 1322 12
	li	a5,0
	.loc 1 1323 1
	mv	a0,a5
	lw	s0,12(sp)
	.cfi_restore 8
	addi	sp,sp,16
	.cfi_def_cfa_register 2
	jr	ra
	.cfi_endproc
.LFE46:
	.size	tz_is_dst, .-tz_is_dst
	.local	device.3774
	.comm	device.3774,4,4
	.local	device.3779
	.comm	device.3779,4,4
	.local	tmp.3796
	.comm	tmp.3796,36,4
	.local	tmp.3805
	.comm	tmp.3805,36,4
	.local	buf.3817
	.comm	buf.3817,26,4
.Letext0:
	.file 2 "c:\\rt-threadstudio\\repo\\extract\\toolchain_support_packages\\wch\\risc-v-gcc-wch\\8.2.0\\riscv-none-embed\\include\\machine\\_default_types.h"
	.file 3 "c:\\rt-threadstudio\\repo\\extract\\toolchain_support_packages\\wch\\risc-v-gcc-wch\\8.2.0\\lib\\gcc\\riscv-none-embed\\8.2.0\\include\\stddef.h"
	.file 4 "c:\\rt-threadstudio\\repo\\extract\\toolchain_support_packages\\wch\\risc-v-gcc-wch\\8.2.0\\riscv-none-embed\\include\\sys\\lock.h"
	.file 5 "c:\\rt-threadstudio\\repo\\extract\\toolchain_support_packages\\wch\\risc-v-gcc-wch\\8.2.0\\riscv-none-embed\\include\\sys\\_types.h"
	.file 6 "c:\\rt-threadstudio\\repo\\extract\\toolchain_support_packages\\wch\\risc-v-gcc-wch\\8.2.0\\riscv-none-embed\\include\\sys\\_stdint.h"
	.file 7 "c:\\rt-threadstudio\\repo\\extract\\toolchain_support_packages\\wch\\risc-v-gcc-wch\\8.2.0\\riscv-none-embed\\include\\sys\\types.h"
	.file 8 "c:\\rt-threadstudio\\repo\\extract\\toolchain_support_packages\\wch\\risc-v-gcc-wch\\8.2.0\\riscv-none-embed\\include\\sys\\reent.h"
	.file 9 "c:\\rt-threadstudio\\repo\\extract\\toolchain_support_packages\\wch\\risc-v-gcc-wch\\8.2.0\\riscv-none-embed\\include\\time.h"
	.file 10 "C:\\Users\\yaman\\OneDrive\\Documents\\rtthread-workspace\\CH32V208\\rt-thread\\components\\libc\\compilers\\common\\include/sys/time.h"
	.file 11 "c:\\rt-threadstudio\\repo\\extract\\toolchain_support_packages\\wch\\risc-v-gcc-wch\\8.2.0\\riscv-none-embed\\include\\sys\\errno.h"
	.file 12 "C:\\Users\\yaman\\OneDrive\\Documents\\rtthread-workspace\\CH32V208\\rt-thread\\include/rtdef.h"
	.file 13 "C:\\Users\\yaman\\OneDrive\\Documents\\rtthread-workspace\\CH32V208\\rt-thread\\components\\finsh/finsh.h"