	.file	"bmi270_legacy.c"
	.option nopic
	.text
.Ltext0:
	.cfi_sections	.debug_frame
	.comm	bmi270_legacy_config,4,4
	.globl	bmi270_legacy_config_file
	.section	.rodata
	.align	2
	.type	bmi270_legacy_config_file, @object
	.size	bmi270_legacy_config_file, 8192
bmi270_legacy_config_file:
	.byte	-56
	.byte	46
	.byte	0
	.byte	46
	.byte	-128
	.byte	46
	.byte	60
	.byte	-78
	.byte	-56
	.byte	46
	.byte	0
	.byte	46
	.byte	-128
	.byte	46
	.byte	-101
	.byte	3
	.byte	-128
	.byte	46
	.byte	-92
	.byte	-77
	.byte	-128
	.byte	46
	.byte	-72
	.byte	3
	.byte	-56
	.byte	46
	.byte	0
	.byte	46
	.byte	-128
	.byte	46
	.byte	-60
	.byte	-78
	.byte	80
	.byte	48
	.byte	33
	.byte	46
	.byte	89
	.byte	-11
	.byte	16
	.byte	48
	.byte	33
	.byte	46
	.byte	74
	.byte	-15
	.byte	33
	.byte	46
	.byte	106
	.byte	-11
	.byte	-128
	.byte	46
	.byte	-27
	.byte	1
	.byte	0
	.byte	93
	.byte	1
	.byte	0
	.byte	34
	.byte	0
	.byte	119
	.byte	0
	.byte	0
	.byte	16
	.byte	0
	.byte	16
	.byte	-47
	.byte	0
	.byte	69
	.byte	-11
	.byte	-128
	.byte	46
	.byte	0
	.byte	-63
	.byte	-128
	.byte	46
	.byte	0
	.byte	-63
	.byte	-128
	.byte	46
	.byte	0
	.byte	-63
	.byte	-128
	.byte	46
	.byte	0
	.byte	-63
	.byte	-128
	.byte	46
	.byte	0
	.byte	-63
	.byte	-128
	.byte	46
	.byte	0
	.byte	-63
	.byte	-128
	.byte	46
	.byte	0
	.byte	-63
	.byte	-128
	.byte	46
	.byte	0
	.byte	-63
	.byte	-128
	.byte	46
	.byte	0
	.byte	-63
	.byte	-128
	.byte	46
	.byte	0
	.byte	-63
	.byte	-128
	.byte	46
	.byte	0
	.byte	-63
	.byte	-128
	.byte	46
	.byte	0
	.byte	-63
	.byte	-128
	.byte	46
	.byte	0
	.byte	-63
	.byte	-128
	.byte	46
	.byte	0
	.byte	-63
	.byte	-128
	.byte	46
	.byte	0
	.byte	-63
	.byte	-128
	.byte	46
	.byte	0
	.byte	-63
	.byte	-128
	.byte	46
	.byte	0
	.byte	-63
	.byte	-128
	.byte	46
	.byte	0
	.byte	-63
	.byte	-128
	.byte	46
	.byte	0
	.byte	-63
	.byte	-128
	.byte	46
	.byte	0
	.byte	-63
	.byte	-128
	.byte	46
	.byte	0
	.byte	-63
	.byte	-128
	.byte	46
	.byte	0
	.byte	-63
	.byte	-128
	.byte	46
	.byte	0
	.byte	-63
	.byte	-128
	.byte	46
	.byte	0
	.byte	-63
	.byte	-128
	.byte	46
	.byte	0
	.byte	-63
	.byte	-128
	.byte	46
	.byte	0
	.byte	-63
	.byte	-128
	.byte	46
	.byte	0
	.byte	-63
	.byte	-128
	.byte	46
	.byte	0
	.byte	-63
	.byte	-128
	.byte	46
	.byte	0
	.byte	-63
	.byte	-128
	.byte	46
	.byte	0
	.byte	-63
	.byte	-128
	.byte	46
	.byte	0
	.byte	-63
	.byte	-128
	.byte	46
	.byte	0
	.byte	-63
	.byte	-128
	.byte	46
	.byte	0
	.byte	-63
	.byte	-128
	.byte	46
	.byte	0
	.byte	-63
	.byte	-128
	.byte	46
	.byte	0
	.byte	-63
	.byte	-128
	.byte	46
	.byte	0
	.byte	-63
	.byte	-128
	.byte	46
	.byte	0
	.byte	-63
	.byte	-128
	.byte	46
	.byte	0
	.byte	-63
	.byte	-128
	.byte	46
	.byte	0
	.byte	-63
	.byte	-128
	.byte	46
	.byte	0
	.byte	-63
	.byte	-128
	.byte	46
	.byte	0
	.byte	-63
	.byte	-128
	.byte	46
	.byte	0
	.byte	-63
	.byte	-128
	.byte	46
	.byte	0
	.byte	-63
	.byte	69
	.byte	90
	.byte	0
	.byte	0
	.byte	0
	.byte	0
	.byte	0
	.byte	0
	.byte	0
	.byte	0
	.byte	0
	.byte	0
	.byte	0
	.byte	0
	.byte	0
	.byte	0
	.byte	0
	.byte	0
	.byte	0
	.byte	0
	.byte	0
	.byte	0
	.byte	0
	.byte	0
	.byte	0
	.byte	0
	.byte	0
	.byte	0
	.byte	0
	.byte	0
	.byte	0
	.byte	0
	.byte	0
	.byte	93
	.byte	0
	.byte	0
	.byte	-120
	.byte	0
	.byte	5
	.byte	-32
	.byte	-86
	.byte	56
	.byte	5
	.byte	-32
	.byte	-112
	.byte	48
	.byte	0
	.byte	0
	.byte	48
	.byte	10
	.byte	-128
	.byte	64
	.byte	16
	.byte	39
	.byte	-24
	.byte	115
	.byte	4
	.byte	48
	.byte	0
	.byte	2
	.byte	0
	.byte	1
	.byte	0
	.byte	48
	.byte	16
	.byte	11
	.byte	9
	.byte	8
	.byte	-6
	.byte	0
	.byte	-106
	.byte	0
	.byte	75
	.byte	9
	.byte	17
	.byte	0
	.byte	17
	.byte	0
	.byte	2
	.byte	0
	.byte	0
	.byte	0
	.byte	34
	.byte	7
	.byte	0
	.byte	0
	.byte	0
	.byte	0
	.byte	0
	.byte	0
	.byte	0
	.byte	0
	.byte	0
	.byte	0
	.byte	0
	.byte	0
	.byte	64
	.byte	0
	.byte	6
	.byte	0
	.byte	9
	.byte	0
	.byte	-126
	.byte	0
	.byte	6
	.byte	0
	.byte	6
	.byte	0
	.byte	8
	.byte	0
	.byte	80
	.byte	0
	.byte	0
	.byte	0
	.byte	76
	.byte	4
	.byte	2
	.byte	0
	.byte	3
	.byte	0
	.byte	0
	.byte	0
	.byte	0
	.byte	0
	.byte	0
	.byte	0
	.byte	0
	.byte	0
	.byte	0
	.byte	0
	.byte	0
	.byte	0
	.byte	0
	.byte	0
	.byte	0
	.byte	0
	.byte	0
	.byte	0
	.byte	0
	.byte	0
	.byte	0
	.byte	0
	.byte	0
	.byte	0
	.byte	0
	.byte	0
	.byte	0
	.byte	0
	.byte	0
	.byte	0
	.byte	0
	.byte	0
	.byte	0
	.byte	0
	.byte	0
	.byte	0
	.byte	0
	.byte	0
	.byte	0
	.byte	0
	.byte	0
	.byte	0
	.byte	0
	.byte	0
	.byte	0
	.byte	0
	.byte	0
	.byte	0
	.byte	0
	.byte	0
	.byte	0
	.byte	0
	.byte	0
	.byte	0
	.byte	0
	.byte	0
	.byte	0
	.byte	0
	.byte	0
	.byte	0
	.byte	0
	.byte	0
	.byte	0
	.byte	0
	.byte	0
	.byte	0
	.byte	-128
	.byte	0
	.byte	0
	.byte	0
	.byte	0
	.byte	0
	.byte	0
	.byte	0
	.byte	0
	.byte	0
	.byte	1
	.byte	0
	.byte	1
	.byte	0
	.byte	0
	.byte	0
	.byte	0
	.byte	0
	.byte	0
	.byte	0
	.byte	3
	.byte	0
	.byte	50
	.byte	1
	.byte	-26
	.byte	120
	.byte	-124
	.byte	0
	.byte	-100
	.byte	108
	.byte	7
	.byte	0
	.byte	100
	.byte	117
	.byte	-86
	.byte	126
	.byte	95
	.byte	5
	.byte	-66
	.byte	10
	.byte	95
	.byte	5
	.byte	-106
	.byte	-24
	.byte	-17
	.byte	65
	.byte	1
	.byte	0
	.byte	12
	.byte	0
	.byte	12
	.byte	0
	.byte	74
	.byte	0
	.byte	-96
	.byte	0
	.byte	0
	.byte	0
	.byte	12
	.byte	0
	.byte	-16
	.byte	60
	.byte	0
	.byte	1
	.byte	0
	.byte	0
	.byte	0
	.byte	0
	.byte	0
	.byte	0
	.byte	0
	.byte	0
	.byte	-32
	.byte	0
	.byte	0
	.byte	0
	.byte	0
	.byte	0
	.byte	0
	.byte	0
	.byte	0
	.byte	0
	.byte	1
	.byte	0
	.byte	-102
	.byte	0
	.byte	-102
	.byte	1
	.byte	-97
	.byte	1
	.byte	-120
	.byte	1
	.byte	-106
	.byte	1
	.byte	-124
	.byte	1
	.byte	0
	.byte	12
	.byte	-1
	.byte	15
	.byte	0
	.byte	4
	.byte	-64
	.byte	0
	.byte	91
	.byte	-11
	.byte	-104
	.byte	-15
	.byte	123
	.byte	1
	.byte	122
	.byte	1
	.byte	30
	.byte	-14
	.byte	-3
	.byte	-11
	.byte	-4
	.byte	-11
	.byte	118
	.byte	1
	.byte	126
	.byte	1
	.byte	-128
	.byte	0
	.byte	-96
	.byte	0
	.byte	95
	.byte	-1
	.byte	-56
	.byte	0
	.byte	-53
	.byte	0
	.byte	-53
	.byte	0
	.byte	-46
	.byte	0
	.byte	-127
	.byte	1
	.byte	105
	.byte	-11
	.byte	-32
	.byte	0
	.byte	63
	.byte	-1
	.byte	25
	.byte	-12
	.byte	88
	.byte	-11
	.byte	102
	.byte	-11
	.byte	-1
	.byte	0
	.byte	100
	.byte	-11
	.byte	-64
	.byte	-15
	.byte	-70
	.byte	-15
	.byte	-82
	.byte	-15
	.byte	-96
	.byte	0
	.byte	-33
	.byte	0
	.byte	-94
	.byte	1
	.byte	-6
	.byte	0
	.byte	-4
	.byte	0
	.byte	-1
	.byte	63
	.byte	-1
	.byte	-5
	.byte	0
	.byte	56
	.byte	0
	.byte	48
	.byte	-77
	.byte	1
	.byte	-70
	.byte	1
	.byte	-68
	.byte	1
	.byte	-62
	.byte	1
	.byte	-54
	.byte	1
	.byte	-1
	.byte	127
	.byte	-1
	.byte	1
	.byte	-114
	.byte	1
	.byte	116
	.byte	-9
	.byte	0
	.byte	64
	.byte	95
	.byte	15
	.byte	-21
	.byte	0
	.byte	127
	.byte	-1
	.byte	-62
	.byte	-11
	.byte	104
	.byte	-9
	.byte	89
	.byte	15
	.byte	77
	.byte	15
	.byte	83
	.byte	15
	.byte	114
	.byte	15
	.byte	88
	.byte	-9
	.byte	91
	.byte	-9
	.byte	117
	.byte	15
	.byte	0
	.byte	-128
	.byte	-122
	.byte	0
	.byte	100
	.byte	15
	.byte	119
	.byte	15
	.byte	-77
	.byte	-15
	.byte	113
	.byte	15
	.byte	108
	.byte	-9
	.byte	-71
	.byte	-15
	.byte	-58
	.byte	-15
	.byte	0
	.byte	-32
	.byte	0
	.byte	-1
	.byte	-47
	.byte	-11
	.byte	121
	.byte	15
	.byte	124
	.byte	15
	.byte	-1
	.byte	3
	.byte	0
	.byte	-4
	.byte	-16
	.byte	63
	.byte	-117
	.byte	0
	.byte	-112
	.byte	0
	.byte	-107
	.byte	0
	.byte	-110
	.byte	0
	.byte	-104
	.byte	0
	.byte	-115
	.byte	0
	.byte	-94
	.byte	0
	.byte	-71
	.byte	0
	.byte	45
	.byte	-11
	.byte	-54
	.byte	-11
	.byte	124
	.byte	1
	.byte	32
	.byte	-14
	.byte	-37
	.byte	1
	.byte	0
	.byte	8
	.byte	0
	.byte	-8
	.byte	-24
	.byte	3
	.byte	1
	.byte	-128
	.byte	-72
	.byte	126
	.byte	-31
	.byte	122
	.byte	-16
	.byte	0
	.byte	0
	.byte	0
	.byte	0
	.byte	0
	.byte	4
	.byte	0
	.byte	0
	.byte	0
	.byte	0
	.byte	0
	.byte	0
	.byte	0
	.byte	0
	.byte	0
	.byte	0
	.byte	0
	.byte	0
	.byte	0
	.byte	0
	.byte	0
	.byte	-87
	.byte	0
	.byte	1
	.byte	0
	.byte	0
	.byte	0
	.byte	0
	.byte	0
	.byte	0
	.byte	0
	.byte	0
	.byte	0
	.byte	0
	.byte	0
	.byte	0
	.byte	0
	.byte	0
	.byte	0
	.byte	0
	.byte	0
	.byte	0
	.byte	0
	.byte	0
	.byte	0
	.byte	0
	.byte	0
	.byte	0
	.byte	0
	.byte	0
	.byte	0
	.byte	0
	.byte	0
	.byte	0
	.byte	0
	.byte	0
	.byte	0
	.byte	0
	.byte	0
	.byte	0
	.byte	0
	.byte	0
	.byte	0
	.byte	0
	.byte	0
	.byte	0
	.byte	0
	.byte	0
	.byte	0
	.byte	0
	.byte	0
	.byte	0
	.byte	0
	.byte	0
	.byte	0
	.byte	0
	.byte	0
	.byte	0
	.byte	0
	.byte	0
	.byte	0
	.byte	0
	.byte	0
	.byte	0
	.byte	0
	.byte	0
	.byte	0
	.byte	0
	.byte	0
	.byte	0
	.byte	0
	.byte	0
	.byte	0
	.byte	0
	.byte	0
	.byte	0
	.byte	0
	.byte	0
	.byte	0
	.byte	0
	.byte	0
	.byte	0
	.byte	0
	.byte	0
	.byte	0
	.byte	0
	.byte	0
	.byte	0
	.byte	0
	.byte	0
	.byte	0
	.byte	0
	.byte	0
	.byte	0
	.byte	0
	.byte	0
	.byte	0
	.byte	0
	.byte	0
	.byte	0
	.byte	0
	.byte	0
	.byte	0
	.byte	0
	.byte	0
	.byte	0
	.byte	0
	.byte	0
	.byte	0
	.byte	0
	.byte	0
	.byte	0
	.byte	0
	.byte	0
	.byte	0
	.byte	0
	.byte	0
	.byte	0
	.byte	0
	.byte	0
	.byte	0
	.byte	0
	.byte	0
	.byte	0
	.byte	0
	.byte	0
	.byte	0
	.byte	0
	.byte	0
	.byte	0
	.byte	0
	.byte	0
	.byte	0
	.byte	0
	.byte	0
	.byte	0
	.byte	0
	.byte	0
	.byte	0
	.byte	0
	.byte	0
	.byte	0
	.byte	0
	.byte	0
	.byte	0
	.byte	0
	.byte	0
	.byte	0
	.byte	0
	.byte	0
	.byte	0
	.byte	0
	.byte	0
	.byte	0
	.byte	0
	.byte	0
	.byte	0
	.byte	0
	.byte	0
	.byte	0
	.byte	0
	.byte	0
	.byte	0
	.byte	0
	.byte	0
	.byte	0
	.byte	0
	.byte	0
	.byte	0
	.byte	0
	.byte	0
	.byte	0
	.byte	0
	.byte	0
	.byte	0
	.byte	0
	.byte	0
	.byte	0
	.byte	0
	.byte	0
	.byte	0
	.byte	0
	.byte	0
	.byte	0
	.byte	0
	.byte	0
	.byte	0
	.byte	0
	.byte	0
	.byte	0
	.byte	0
	.byte	0
	.byte	0
	.byte	0
	.byte	0
	.byte	0
	.byte	0
	.byte	0
	.byte	0
	.byte	0
	.byte	0
	.byte	0
	.byte	0
	.byte	0
	.byte	0
	.byte	0
	.byte	0
	.byte	0
	.byte	0
	.byte	0
	.byte	0
	.byte	0
	.byte	0
	.byte	0
	.byte	0
	.byte	0
	.byte	0
	.byte	0
	.byte	0
	.byte	0
	.byte	0
	.byte	0
	.byte	0
	.byte	0
	.byte	0
	.byte	0
	.byte	0
	.byte	0
	.byte	0
	.byte	26
	.byte	36
	.byte	34
	.byte	0
	.byte	-128
	.byte	46
	.byte	0
	.byte	-80
	.byte	29
	.byte	82
	.byte	0
	.byte	46
	.byte	96
	.byte	64
	.byte	65
	.byte	64
	.byte	13
	.byte	-68
	.byte	-104
	.byte	-68
	.byte	-64
	.byte	46
	.byte	1
	.byte	10
	.byte	15
	.byte	-72
	.byte	31
	.byte	82
	.byte	83
	.byte	60
	.byte	82
	.byte	64
	.byte	64
	.byte	64
	.byte	75
	.byte	0
	.byte	-126
	.byte	22
	.byte	38
	.byte	-71
	.byte	1
	.byte	-72
	.byte	65
	.byte	64
	.byte	16
	.byte	8
	.byte	-105
	.byte	-72
	.byte	1
	.byte	8
	.byte	-64
	.byte	46
	.byte	17
	.byte	48
	.byte	1
	.byte	8
	.byte	67
	.byte	-122
	.byte	37
	.byte	64
	.byte	4
	.byte	64
	.byte	-40
	.byte	-66
	.byte	44
	.byte	11
	.byte	34
	.byte	17
	.byte	84
	.byte	66
	.byte	3
	.byte	-128
	.byte	75
	.byte	14
	.byte	-10
	.byte	47
	.byte	-72
	.byte	46
	.byte	33
	.byte	80
	.byte	16
	.byte	80
	.byte	35
	.byte	82
	.byte	5
	.byte	46
	.byte	-43
	.byte	0
	.byte	-5
	.byte	127
	.byte	0
	.byte	46
	.byte	19
	.byte	64
	.byte	-109
	.byte	66
	.byte	65
	.byte	14
	.byte	-5
	.byte	47
	.byte	-104
	.byte	46
	.byte	-111
	.byte	3
	.byte	-104
	.byte	46
	.byte	-121
	.byte	-49
	.byte	1
	.byte	46
	.byte	112
	.byte	1
	.byte	0
	.byte	-78
	.byte	-5
	.byte	111
	.byte	11
	.byte	47
	.byte	1
	.byte	46
	.byte	105
	.byte	-9
	.byte	-79
	.byte	63
	.byte	1
	.byte	8
	.byte	1
	.byte	48
	.byte	-16
	.byte	95
	.byte	35
	.byte	46
	.byte	112
	.byte	1
	.byte	33
	.byte	46
	.byte	105
	.byte	-9
	.byte	-128
	.byte	46
	.byte	46
	.byte	2
	.byte	-16
	.byte	95
	.byte	-72
	.byte	46
	.byte	3
	.byte	46
	.byte	-4
	.byte	-11
	.byte	1
	.byte	46
	.byte	-64
	.byte	-8
	.byte	37
	.byte	84
	.byte	39
	.byte	86
	.byte	-126
	.byte	8
	.byte	11
	.byte	46
	.byte	105
	.byte	-9
	.byte	-53
	.byte	10
	.byte	41
	.byte	88
	.byte	-128
	.byte	-112
	.byte	-35
	.byte	-66
	.byte	76
	.byte	8
	.byte	95
	.byte	-71
	.byte	89
	.byte	34
	.byte	-128
	.byte	-112
	.byte	7
	.byte	47
	.byte	3
	.byte	52
	.byte	-61
	.byte	8
	.byte	-14
	.byte	58
	.byte	10
	.byte	8
	.byte	2
	.byte	53
	.byte	-64
	.byte	-112
	.byte	74
	.byte	10
	.byte	72
	.byte	34
	.byte	-64
	.byte	46
	.byte	35
	.byte	46
	.byte	-4
	.byte	-11
	.byte	1
	.byte	46
	.byte	126
	.byte	1
	.byte	1
	.byte	-118
	.byte	-16
	.byte	80
	.byte	80
	.byte	65
	.byte	26
	.byte	37
	.byte	3
	.byte	-67
	.byte	113
	.byte	-126
	.byte	2
	.byte	-66
	.byte	47
	.byte	-71
	.byte	66
	.byte	66
	.byte	-127
	.byte	-67
	.byte	69
	.byte	65
	.byte	79
	.byte	-70
	.byte	-15
	.byte	127
	.byte	-65
	.byte	-72
	.byte	15
	.byte	-72
	.byte	92
	.byte	-71
	.byte	36
	.byte	127
	.byte	0
	.byte	-78
	.byte	49
	.byte	127
	.byte	-21
	.byte	127
	.byte	-46
	.byte	127
	.byte	8
	.byte	47
	.byte	16
	.byte	111
	.byte	0
	.byte	-112
	.byte	11
	.byte	47
	.byte	32
	.byte	111
	.byte	0
	.byte	-112
	.byte	8
	.byte	47
	.byte	48
	.byte	111
	.byte	0
	.byte	-112
	.byte	5
	.byte	47
	.byte	1
	.byte	48
	.byte	35
	.byte	46
	.byte	125
	.byte	0
	.byte	-48
	.byte	111
	.byte	-104
	.byte	46
	.byte	-107
	.byte	-49
	.byte	5
	.byte	46
	.byte	125
	.byte	0
	.byte	-128
	.byte	-112
	.byte	0
	.byte	48
	.byte	43
	.byte	82
	.byte	47
	.byte	86
	.byte	7
	.byte	47
	.byte	43
	.byte	88
	.byte	0
	.byte	46
	.byte	16
	.byte	67
	.byte	99
	.byte	14
	.byte	-4
	.byte	47
	.byte	-127
	.byte	-124
	.byte	37
	.byte	46
	.byte	125
	.byte	0
	.byte	9
	.byte	46
	.byte	126
	.byte	1
	.byte	2
	.byte	-123
	.byte	19
	.byte	65
	.byte	4
	.byte	65
	.byte	-79
	.byte	-67
	.byte	-79
	.byte	-71
	.byte	68
	.byte	-66
	.byte	-126
	.byte	64
	.byte	68
	.byte	-70
	.byte	36
	.byte	-67
	.byte	-77
	.byte	127
	.byte	92
	.byte	5
	.byte	36
	.byte	-71
	.byte	1
	.byte	86
	.byte	45
	.byte	88
	.byte	-110
	.byte	127
	.byte	-91
	.byte	127
	.byte	-128
	.byte	127
	.byte	-64
	.byte	127
	.byte	115
	.byte	127
	.byte	100
	.byte	127
	.byte	0
	.byte	46
	.byte	-14
	.byte	111
	.byte	64
	.byte	127
	.byte	81
	.byte	127
	.byte	0
	.byte	46
	.byte	-112
	.byte	64
	.byte	-14
	.byte	127
	.byte	0
	.byte	-112
	.byte	4
	.byte	47
	.byte	81
	.byte	111
	.byte	0
	.byte	48
	.byte	64
	.byte	66
	.byte	69
	.byte	44
	.byte	98
	.byte	111
	.byte	-63
	.byte	64
	.byte	-104
	.byte	46
	.byte	116
	.byte	-64
	.byte	81
	.byte	111
	.byte	0
	.byte	46
	.byte	67
	.byte	64
	.byte	-64
	.byte	-78
	.byte	45
	.byte	47
	.byte	98
	.byte	111
	.byte	-91
	.byte	111
	.byte	-124
	.byte	64
	.byte	-59
	.byte	14
	.byte	7
	.byte	47
	.byte	117
	.byte	111
	.byte	16
	.byte	48
	.byte	69
	.byte	65
	.byte	64
	.byte	-95
	.byte	5
	.byte	48
	.byte	5
	.byte	34
	.byte	32
	.byte	26
	.byte	2
	.byte	47
	.byte	0
	.byte	48
	.byte	64
	.byte	66
	.byte	44
	.byte	45
	.byte	16
	.byte	48
	.byte	24
	.byte	40
	.byte	-109
	.byte	111
	.byte	64
	.byte	66
	.byte	-61
	.byte	14
	.byte	37
	.byte	47
	.byte	-64
	.byte	111
	.byte	0
	.byte	-112
	.byte	34
	.byte	47
	.byte	69
	.byte	111
	.byte	16
	.byte	48
	.byte	-59
	.byte	20
	.byte	70
	.byte	-65
	.byte	-77
	.byte	-65
	.byte	-73
	.byte	11
	.byte	43
	.byte	88
	.byte	101
	.byte	1
	.byte	47
	.byte	94
	.byte	11
	.byte	48
	.byte	37
	.byte	26
	.byte	0
	.byte	47
	.byte	11
	.byte	67
	.byte	1
	.byte	-119
	.byte	45
	.byte	46
	.byte	121
	.byte	1
	.byte	103
	.byte	14
	.byte	-9
	.byte	47
	.byte	-128
	.byte	127
	.byte	-61
	.byte	127
	.byte	14
	.byte	45
	.byte	-78
	.byte	111
	.byte	-62
	.byte	14
	.byte	8
	.byte	47
	.byte	16
	.byte	48
	.byte	64
	.byte	66
	.byte	2
	.byte	48
	.byte	116
	.byte	111
	.byte	99
	.byte	111
	.byte	4
	.byte	65
	.byte	0
	.byte	-95
	.byte	2
	.byte	34
	.byte	-64
	.byte	66
	.byte	0
	.byte	46
	.byte	98
	.byte	111
	.byte	64
	.byte	111
	.byte	115
	.byte	111
	.byte	1
	.byte	-128
	.byte	-63
	.byte	-122
	.byte	-127
	.byte	-124
	.byte	65
	.byte	-126
	.byte	3
	.byte	-94
	.byte	98
	.byte	127
	.byte	115
	.byte	127
	.byte	-92
	.byte	47
	.byte	-21
	.byte	111
	.byte	-48
	.byte	111
	.byte	-127
	.byte	111
	.byte	16
	.byte	95
	.byte	-128
	.byte	46
	.byte	-107
	.byte	-49
	.byte	3
	.byte	46
	.byte	127
	.byte	1
	.byte	65
	.byte	-124
	.byte	80
	.byte	80
	.byte	-112
	.byte	64
	.byte	-126
	.byte	64
	.byte	-125
	.byte	-67
	.byte	-65
	.byte	-71
	.byte	44
	.byte	-70
	.byte	-5
	.byte	127
	.byte	-64
	.byte	-78
	.byte	-28
	.byte	127
	.byte	11
	.byte	48
	.byte	54
	.byte	47
	.byte	7
	.byte	46
	.byte	126
	.byte	0
	.byte	-64
	.byte	-112
	.byte	4
	.byte	47
	.byte	-63
	.byte	-122
	.byte	39
	.byte	46
	.byte	126
	.byte	0
	.byte	55
	.byte	46
	.byte	127
	.byte	0
	.byte	-92
	.byte	-67
	.byte	4
	.byte	-67
	.byte	52
	.byte	-72
	.byte	65
	.byte	64
	.byte	-111
	.byte	-68
	.byte	-111
	.byte	-71
	.byte	-77
	.byte	127
	.byte	36
	.byte	-71
	.byte	9
	.byte	82
	.byte	-64
	.byte	127
	.byte	-46
	.byte	127
	.byte	-104
	.byte	46
	.byte	-77
	.byte	-64
	.byte	-47
	.byte	111
	.byte	-78
	.byte	111
	.byte	81
	.byte	40
	.byte	65
	.byte	15
	.byte	17
	.byte	48
	.byte	13
	.byte	47
	.byte	-62
	.byte	14
	.byte	7
	.byte	46
	.byte	127
	.byte	0
	.byte	25
	.byte	40
	.byte	4
	.byte	47
	.byte	-64
	.byte	-90
	.byte	4
	.byte	47
	.byte	33
	.byte	46
	.byte	127
	.byte	0
	.byte	2
	.byte	45
	.byte	33
	.byte	46
	.byte	127
	.byte	0
	.byte	4
	.byte	44
	.byte	2
	.byte	48
	.byte	2
	.byte	48
	.byte	37
	.byte	46
	.byte	127
	.byte	0
	.byte	-64
	.byte	111
	.byte	7
	.byte	46
	.byte	127
	.byte	0
	.byte	88
	.byte	15
	.byte	-5
	.byte	111
	.byte	-32
	.byte	111
	.byte	-80
	.byte	95
	.byte	74
	.byte	34
	.byte	-128
	.byte	46
	.byte	-107
	.byte	-49
	.byte	-32
	.byte	111
	.byte	1
	.byte	48
	.byte	-104
	.byte	46
	.byte	-107
	.byte	-49
	.byte	0
	.byte	48
	.byte	33
	.byte	46
	.byte	126
	.byte	0
	.byte	-5
	.byte	111
	.byte	-80
	.byte	95
	.byte	-72
	.byte	46
	.byte	33
	.byte	46
	.byte	89
	.byte	-11
	.byte	16
	.byte	48
	.byte	-64
	.byte	46
	.byte	33
	.byte	46
	.byte	74
	.byte	-15
	.byte	-128
	.byte	46
	.byte	0
	.byte	-63
	.byte	1
	.byte	0
	.byte	0
	.byte	0
	.byte	0
	.byte	0
	.byte	0
	.byte	0
	.byte	0
	.byte	0
	.byte	0
	.byte	0
	.byte	-102
	.byte	1
	.byte	52
	.byte	3
	.byte	0
	.byte	0
	.byte	0
	.byte	0
	.byte	0
	.byte	0
	.byte	0
	.byte	0
	.byte	0
	.byte	0
	.byte	0
	.byte	0
	.byte	0
	.byte	0
	.byte	0
	.byte	0
	.byte	0
	.byte	0
	.byte	0
	.byte	0
	.byte	0
	.byte	0
	.byte	0
	.byte	0
	.byte	0
	.byte	0
	.byte	0
	.byte	0
	.byte	0
	.byte	0
	.byte	0
	.byte	0
	.byte	0
	.byte	0
	.byte	0
	.byte	0
	.byte	0
	.byte	0
	.byte	0
	.byte	0
	.byte	0
	.byte	0
	.byte	0
	.byte	0
	.byte	0
	.byte	0
	.byte	0
	.byte	0
	.byte	0
	.byte	0
	.byte	0
	.byte	0
	.byte	0
	.byte	0
	.byte	0
	.byte	0
	.byte	0
	.byte	0
	.byte	0
	.byte	0
	.byte	0
	.byte	0
	.byte	0
	.byte	0
	.byte	0
	.byte	0
	.byte	0
	.byte	0
	.byte	0
	.byte	0
	.byte	0
	.byte	0
	.byte	0
	.byte	0
	.byte	0
	.byte	0
	.byte	0
	.byte	0
	.byte	0
	.byte	0
	.byte	0
	.byte	0
	.byte	0
	.byte	0
	.byte	0
	.byte	0
	.byte	0
	.byte	0
	.byte	0
	.byte	0
	.byte	0
	.byte	0
	.byte	0
	.byte	0
	.byte	0
	.byte	0
	.byte	0
	.byte	0
	.byte	0
	.byte	0
	.byte	0
	.byte	0
	.byte	0
	.byte	0
	.byte	0
	.byte	0
	.byte	0
	.byte	0
	.byte	0
	.byte	0
	.byte	0
	.byte	0
	.byte	0
	.byte	0
	.byte	3
	.byte	46
	.byte	-43
	.byte	0
	.byte	22
	.byte	-72
	.byte	2
	.byte	52
	.byte	74
	.byte	12
	.byte	33
	.byte	46
	.byte	45
	.byte	-11
	.byte	-64
	.byte	46
	.byte	35
	.byte	46
	.byte	-43
	.byte	0
	.byte	32
	.byte	80
	.byte	-10
	.byte	127
	.byte	-25
	.byte	127
	.byte	0
	.byte	46
	.byte	53
	.byte	92
	.byte	0
	.byte	46
	.byte	-121
	.byte	65
	.byte	-1
	.byte	-65
	.byte	-1
	.byte	-69
	.byte	-64
	.byte	-111
	.byte	2
	.byte	47
	.byte	55
	.byte	48
	.byte	47
	.byte	46
	.byte	105
	.byte	-11
	.byte	-72
	.byte	-113
	.byte	6
	.byte	50
	.byte	-57
	.byte	65
	.byte	-2
	.byte	9
	.byte	-64
	.byte	-77
	.byte	4
	.byte	47
	.byte	23
	.byte	48
	.byte	47
	.byte	46
	.byte	-107
	.byte	1
	.byte	45
	.byte	46
	.byte	97
	.byte	-11
	.byte	-10
	.byte	111
	.byte	-25
	.byte	111
	.byte	-32
	.byte	95
	.byte	-56
	.byte	46
	.byte	48
	.byte	80
	.byte	-27
	.byte	127
	.byte	-10
	.byte	127
	.byte	-41
	.byte	127
	.byte	0
	.byte	46
	.byte	53
	.byte	90
	.byte	0
	.byte	46
	.byte	70
	.byte	65
	.byte	111
	.byte	-65
	.byte	111
	.byte	-69
	.byte	-128
	.byte	-111
	.byte	2
	.byte	47
	.byte	54
	.byte	48
	.byte	45
	.byte	46
	.byte	105
	.byte	-11
	.byte	70
	.byte	48
	.byte	15
	.byte	46
	.byte	-92
	.byte	-15
	.byte	-66
	.byte	9
	.byte	119
	.byte	-117
	.byte	-128
	.byte	-77
	.byte	6
	.byte	47
	.byte	13
	.byte	46
	.byte	107
	.byte	1
	.byte	-124
	.byte	-81
	.byte	2
	.byte	47
	.byte	22
	.byte	48
	.byte	45
	.byte	46
	.byte	-34
	.byte	0
	.byte	-122
	.byte	48
	.byte	70
	.byte	67
	.byte	0
	.byte	46
	.byte	-10
	.byte	111
	.byte	-27
	.byte	111
	.byte	-41
	.byte	111
	.byte	-48
	.byte	95
	.byte	-56
	.byte	46
	.byte	16
	.byte	80
	.byte	-5
	.byte	127
	.byte	-104
	.byte	46
	.byte	86
	.byte	-57
	.byte	-104
	.byte	46
	.byte	73
	.byte	-61
	.byte	2
	.byte	48
	.byte	48
	.byte	48
	.byte	17
	.byte	48
	.byte	-5
	.byte	111
	.byte	-16
	.byte	95
	.byte	37
	.byte	46
	.byte	126
	.byte	0
	.byte	37
	.byte	46
	.byte	-50
	.byte	0
	.byte	33
	.byte	46
	.byte	-33
	.byte	0
	.byte	35
	.byte	46
	.byte	124
	.byte	0
	.byte	35
	.byte	46
	.byte	-2
	.byte	0
	.byte	33
	.byte	46
	.byte	120
	.byte	1
	.byte	-72
	.byte	46
	.byte	17
	.byte	48
	.byte	-127
	.byte	8
	.byte	1
	.byte	46
	.byte	106
	.byte	-9
	.byte	113
	.byte	63
	.byte	35
	.byte	-67
	.byte	1
	.byte	8
	.byte	2
	.byte	10
	.byte	-64
	.byte	46
	.byte	33
	.byte	46
	.byte	106
	.byte	-9
	.byte	64
	.byte	80
	.byte	-104
	.byte	46
	.byte	-67
	.byte	14
	.byte	80
	.byte	50
	.byte	-104
	.byte	46
	.byte	72
	.byte	3
	.byte	0
	.byte	48
	.byte	-16
	.byte	127
	.byte	-32
	.byte	127
	.byte	33
	.byte	46
	.byte	105
	.byte	-11
	.byte	0
	.byte	46
	.byte	0
	.byte	46
	.byte	-48
	.byte	46
	.byte	0
	.byte	46
	.byte	1
	.byte	-128
	.byte	8
	.byte	-94
	.byte	-5
	.byte	47
	.byte	5
	.byte	46
	.byte	-88
	.byte	0
	.byte	47
	.byte	-68
	.byte	-82
	.byte	-68
	.byte	-83
	.byte	-67
	.byte	15
	.byte	-72
	.byte	-97
	.byte	-72
	.byte	1
	.byte	10
	.byte	5
	.byte	46
	.byte	-109
	.byte	0
	.byte	-65
	.byte	-71
	.byte	-81
	.byte	-72
	.byte	3
	.byte	10
	.byte	1
	.byte	10
	.byte	33
	.byte	46
	.byte	122
	.byte	0
	.byte	-104
	.byte	46
	.byte	-21
	.byte	-75
	.byte	3
	.byte	46
	.byte	-99
	.byte	1
	.byte	33
	.byte	46
	.byte	123
	.byte	0
	.byte	64
	.byte	-78
	.byte	26
	.byte	47
	.byte	5
	.byte	46
	.byte	-118
	.byte	0
	.byte	1
	.byte	82
	.byte	-104
	.byte	46
	.byte	-57
	.byte	-63
	.byte	3
	.byte	46
	.byte	-88
	.byte	0
	.byte	-100
	.byte	-68
	.byte	-97
	.byte	-72
	.byte	35
	.byte	46
	.byte	-35
	.byte	0
	.byte	64
	.byte	-112
	.byte	-16
	.byte	127
	.byte	3
	.byte	47
	.byte	1
	.byte	82
	.byte	-104
	.byte	46
	.byte	76
	.byte	-74
	.byte	3
	.byte	45
	.byte	3
	.byte	82
	.byte	-104
	.byte	46
	.byte	76
	.byte	-74
	.byte	-32
	.byte	127
	.byte	-104
	.byte	46
	.byte	75
	.byte	2
	.byte	16
	.byte	48
	.byte	33
	.byte	46
	.byte	124
	.byte	0
	.byte	1
	.byte	46
	.byte	-103
	.byte	1
	.byte	0
	.byte	-78
	.byte	7
	.byte	47
	.byte	1
	.byte	46
	.byte	123
	.byte	0
	.byte	0
	.byte	-78
	.byte	3
	.byte	47
	.byte	5
	.byte	80
	.byte	7
	.byte	82
	.byte	-104
	.byte	46
	.byte	7
	.byte	-52
	.byte	1
	.byte	46
	.byte	-121
	.byte	1
	.byte	0
	.byte	-78
	.byte	53
	.byte	47
	.byte	5
	.byte	46
	.byte	-118
	.byte	0
	.byte	9
	.byte	82
	.byte	-104
	.byte	46
	.byte	-57
	.byte	-63
	.byte	3
	.byte	46
	.byte	-109
	.byte	1
	.byte	64
	.byte	-78
	.byte	-16
	.byte	127
	.byte	8
	.byte	47
	.byte	1
	.byte	46
	.byte	123
	.byte	0
	.byte	0
	.byte	-78
	.byte	4
	.byte	47
	.byte	0
	.byte	48
	.byte	33
	.byte	46
	.byte	-109
	.byte	1
	.byte	-104
	.byte	46
	.byte	-120
	.byte	-75
	.byte	1
	.byte	46
	.byte	121
	.byte	0
	.byte	0
	.byte	-78
	.byte	30
	.byte	47
	.byte	-104
	.byte	46
	.byte	120
	.byte	-76
	.byte	-104
	.byte	46
	.byte	73
	.byte	-75
	.byte	9
	.byte	80
	.byte	-104
	.byte	46
	.byte	77
	.byte	-61
	.byte	9
	.byte	80
	.byte	-104
	.byte	46
	.byte	90
	.byte	-57
	.byte	-104
	.byte	46
	.byte	-7
	.byte	2
	.byte	-127
	.byte	63
	.byte	1
	.byte	46
	.byte	121
	.byte	1
	.byte	1
	.byte	8
	.byte	9
	.byte	82
	.byte	-48
	.byte	127
	.byte	33
	.byte	46
	.byte	121
	.byte	1
	.byte	-104
	.byte	46
	.byte	-1
	.byte	-59
	.byte	-47
	.byte	111
	.byte	8
	.byte	10
	.byte	33
	.byte	46
	.byte	121
	.byte	1
	.byte	-104
	.byte	46
	.byte	-61
	.byte	-79
	.byte	16
	.byte	48
	.byte	33
	.byte	46
	.byte	124
	.byte	0
	.byte	1
	.byte	46
	.byte	-107
	.byte	1
	.byte	0
	.byte	-78
	.byte	4
	.byte	47
	.byte	-104
	.byte	46
	.byte	46
	.byte	2
	.byte	0
	.byte	48
	.byte	33
	.byte	46
	.byte	-107
	.byte	1
	.byte	1
	.byte	46
	.byte	107
	.byte	1
	.byte	4
	.byte	-82
	.byte	11
	.byte	47
	.byte	1
	.byte	46
	.byte	-121
	.byte	1
	.byte	0
	.byte	-78
	.byte	7
	.byte	47
	.byte	9
	.byte	82
	.byte	-104
	.byte	46
	.byte	116
	.byte	14
	.byte	0
	.byte	-78
	.byte	2
	.byte	47
	.byte	16
	.byte	48
	.byte	33
	.byte	46
	.byte	-41
	.byte	0
	.byte	1
	.byte	46
	.byte	-41
	.byte	0
	.byte	0
	.byte	-112
	.byte	-112
	.byte	46
	.byte	114
	.byte	-79
	.byte	1
	.byte	46
	.byte	110
	.byte	1
	.byte	0
	.byte	-78
	.byte	4
	.byte	47
	.byte	-104
	.byte	46
	.byte	21
	.byte	14
	.byte	0
	.byte	48
	.byte	33
	.byte	46
	.byte	-34
	.byte	0
	.byte	1
	.byte	46
	.byte	-34
	.byte	0
	.byte	0
	.byte	-78
	.byte	18
	.byte	47
	.byte	1
	.byte	46
	.byte	107
	.byte	1
	.byte	0
	.byte	-112
	.byte	2
	.byte	47
	.byte	-104
	.byte	46
	.byte	5
	.byte	14
	.byte	9
	.byte	45
	.byte	-104
	.byte	46
	.byte	93
	.byte	13
	.byte	1
	.byte	46
	.byte	107
	.byte	1
	.byte	4
	.byte	-112
	.byte	2
	.byte	47
	.byte	80
	.byte	50
	.byte	-104
	.byte	46
	.byte	72
	.byte	3
	.byte	0
	.byte	48
	.byte	33
	.byte	46
	.byte	-34
	.byte	0
	.byte	1
	.byte	46
	.byte	-42
	.byte	0
	.byte	0
	.byte	-78
	.byte	-112
	.byte	46
	.byte	-118
	.byte	-79
	.byte	1
	.byte	46
	.byte	-42
	.byte	0
	.byte	1
	.byte	49
	.byte	1
	.byte	8
	.byte	0
	.byte	-78
	.byte	4
	.byte	47
	.byte	-104
	.byte	46
	.byte	71
	.byte	-53
	.byte	16
	.byte	48
	.byte	33
	.byte	46
	.byte	124
	.byte	0
	.byte	-127
	.byte	48
	.byte	1
	.byte	46
	.byte	-42
	.byte	0
	.byte	1
	.byte	8
	.byte	0
	.byte	-78
	.byte	97
	.byte	47
	.byte	3
	.byte	46
	.byte	-119
	.byte	0
	.byte	1
	.byte	46
	.byte	107
	.byte	1
	.byte	-104
	.byte	-68
	.byte	-104
	.byte	-72
	.byte	5
	.byte	-78
	.byte	19
	.byte	88
	.byte	35
	.byte	47
	.byte	7
	.byte	-112
	.byte	13
	.byte	84
	.byte	0
	.byte	48
	.byte	55
	.byte	47
	.byte	21
	.byte	65
	.byte	4
	.byte	65
	.byte	-36
	.byte	-66
	.byte	68
	.byte	-66
	.byte	-36
	.byte	-70
	.byte	44
	.byte	1
	.byte	97
	.byte	0
	.byte	19
	.byte	86
	.byte	74
	.byte	15
	.byte	12
	.byte	47
	.byte	-47
	.byte	66
	.byte	-108
	.byte	-72
	.byte	-63
	.byte	66
	.byte	17
	.byte	48
	.byte	5
	.byte	46
	.byte	106
	.byte	-9
	.byte	44
	.byte	-67
	.byte	47
	.byte	-71
	.byte	-128
	.byte	-78
	.byte	8
	.byte	34
	.byte	-104
	.byte	46
	.byte	-11
	.byte	3
	.byte	33
	.byte	45
	.byte	97
	.byte	48
	.byte	35
	.byte	46
	.byte	107
	.byte	1
	.byte	-104
	.byte	46
	.byte	-11
	.byte	3
	.byte	0
	.byte	48
	.byte	33
	.byte	46
	.byte	90
	.byte	-11
	.byte	24
	.byte	45
	.byte	-47
	.byte	127
	.byte	80
	.byte	48
	.byte	-104
	.byte	46
	.byte	72
	.byte	3
	.byte	19
	.byte	82
	.byte	11
	.byte	80
	.byte	80
	.byte	66
	.byte	112
	.byte	48
	.byte	17
	.byte	84
	.byte	66
	.byte	66
	.byte	126
	.byte	-126
	.byte	-46
	.byte	111
	.byte	-128
	.byte	-78
	.byte	66
	.byte	66
	.byte	5
	.byte	47
	.byte	33
	.byte	46
	.byte	107
	.byte	1
	.byte	16
	.byte	48
	.byte	-104
	.byte	46
	.byte	-11
	.byte	3
	.byte	3
	.byte	45
	.byte	96
	.byte	48
	.byte	33
	.byte	46
	.byte	107
	.byte	1
	.byte	1
	.byte	46
	.byte	107
	.byte	1
	.byte	6
	.byte	-112
	.byte	24
	.byte	47
	.byte	1
	.byte	46
	.byte	120
	.byte	0
	.byte	15
	.byte	84
	.byte	11
	.byte	82
	.byte	-48
	.byte	127
	.byte	-104
	.byte	46
	.byte	122
	.byte	-63
	.byte	-47
	.byte	111
	.byte	8
	.byte	26
	.byte	64
	.byte	48
	.byte	8
	.byte	47
	.byte	33
	.byte	46
	.byte	107
	.byte	1
	.byte	32
	.byte	48
	.byte	-104
	.byte	46
	.byte	36
	.byte	-74
	.byte	80
	.byte	50
	.byte	-104
	.byte	46
	.byte	72
	.byte	3
	.byte	5
	.byte	45
	.byte	-104
	.byte	46
	.byte	30
	.byte	14
	.byte	0
	.byte	48
	.byte	33
	.byte	46
	.byte	107
	.byte	1
	.byte	65
	.byte	48
	.byte	1
	.byte	46
	.byte	-42
	.byte	0
	.byte	1
	.byte	8
	.byte	0
	.byte	-78
	.byte	38
	.byte	47
	.byte	1
	.byte	46
	.byte	113
	.byte	1
	.byte	0
	.byte	-78
	.byte	13
	.byte	47
	.byte	1
	.byte	-112
	.byte	29
	.byte	47
	.byte	5
	.byte	46
	.byte	-65
	.byte	0
	.byte	7
	.byte	46
	.byte	114
	.byte	1
	.byte	-95
	.byte	50
	.byte	23
	.byte	88
	.byte	-104
	.byte	46
	.byte	-82
	.byte	-73
	.byte	0
	.byte	48
	.byte	33
	.byte	46
	.byte	113
	.byte	1
	.byte	18
	.byte	45
	.byte	21
	.byte	88
	.byte	-93
	.byte	50
	.byte	16
	.byte	65
	.byte	17
	.byte	65
	.byte	24
	.byte	-71
	.byte	4
	.byte	65
	.byte	-104
	.byte	-68
	.byte	65
	.byte	10
	.byte	-108
	.byte	10
	.byte	-104
	.byte	46
	.byte	-96
	.byte	-73
	.byte	17
	.byte	48
	.byte	33
	.byte	46
	.byte	114
	.byte	1
	.byte	33
	.byte	46
	.byte	123
	.byte	1
	.byte	35
	.byte	46
	.byte	113
	.byte	1
	.byte	16
	.byte	48
	.byte	33
	.byte	46
	.byte	124
	.byte	0
	.byte	0
	.byte	48
	.byte	33
	.byte	46
	.byte	-42
	.byte	0
	.byte	24
	.byte	45
	.byte	1
	.byte	46
	.byte	107
	.byte	1
	.byte	3
	.byte	-86
	.byte	1
	.byte	47
	.byte	-104
	.byte	46
	.byte	43
	.byte	14
	.byte	1
	.byte	46
	.byte	107
	.byte	1
	.byte	63
	.byte	-128
	.byte	3
	.byte	-94
	.byte	1
	.byte	47
	.byte	0
	.byte	46
	.byte	2
	.byte	45
	.byte	-104
	.byte	46
	.byte	65
	.byte	14
	.byte	48
	.byte	48
	.byte	-104
	.byte	46
	.byte	56
	.byte	-74
	.byte	0
	.byte	48
	.byte	33
	.byte	46
	.byte	-41
	.byte	0
	.byte	80
	.byte	50
	.byte	-104
	.byte	46
	.byte	72
	.byte	3
	.byte	1
	.byte	46
	.byte	124
	.byte	0
	.byte	0
	.byte	-78
	.byte	41
	.byte	47
	.byte	-104
	.byte	46
	.byte	-11
	.byte	-53
	.byte	3
	.byte	46
	.byte	108
	.byte	1
	.byte	25
	.byte	84
	.byte	65
	.byte	10
	.byte	-68
	.byte	-124
	.byte	35
	.byte	46
	.byte	122
	.byte	1
	.byte	-125
	.byte	-128
	.byte	116
	.byte	48
	.byte	35
	.byte	64
	.byte	5
	.byte	64
	.byte	27
	.byte	80
	.byte	-127
	.byte	64
	.byte	-36
	.byte	8
	.byte	24
	.byte	-71
	.byte	17
	.byte	66
	.byte	-45
	.byte	-66
	.byte	-28
	.byte	111
	.byte	-59
	.byte	-68
	.byte	-35
	.byte	10
	.byte	18
	.byte	66
	.byte	89
	.byte	10
	.byte	17
	.byte	66
	.byte	-48
	.byte	127
	.byte	-15
	.byte	49
	.byte	0
	.byte	64
	.byte	-14
	.byte	111
	.byte	37
	.byte	-67
	.byte	1
	.byte	8
	.byte	2
	.byte	10
	.byte	-64
	.byte	127
	.byte	-104
	.byte	46
	.byte	-88
	.byte	-49
	.byte	6
	.byte	-68
	.byte	-63
	.byte	111
	.byte	-46
	.byte	111
	.byte	8
	.byte	10
	.byte	-128
	.byte	66
	.byte	-104
	.byte	46
	.byte	12
	.byte	2
	.byte	0
	.byte	48
	.byte	33
	.byte	46
	.byte	-99
	.byte	1
	.byte	33
	.byte	46
	.byte	-103
	.byte	1
	.byte	33
	.byte	46
	.byte	124
	.byte	0
	.byte	33
	.byte	46
	.byte	-121
	.byte	1
	.byte	-128
	.byte	46
	.byte	9
	.byte	-80
	.byte	1
	.byte	46
	.byte	-128
	.byte	1
	.byte	1
	.byte	64
	.byte	-112
	.byte	80
	.byte	-97
	.byte	-67
	.byte	19
	.byte	-67
	.byte	-65
	.byte	-71
	.byte	44
	.byte	-71
	.byte	-5
	.byte	127
	.byte	-30
	.byte	127
	.byte	-64
	.byte	-78
	.byte	11
	.byte	48
	.byte	98
	.byte	47
	.byte	7
	.byte	46
	.byte	-50
	.byte	0
	.byte	49
	.byte	84
	.byte	-64
	.byte	-112
	.byte	11
	.byte	47
	.byte	-101
	.byte	66
	.byte	-63
	.byte	-122
	.byte	-101
	.byte	66
	.byte	39
	.byte	46
	.byte	-50
	.byte	0
	.byte	55
	.byte	46
	.byte	-49
	.byte	0
	.byte	55
	.byte	46
	.byte	-48
	.byte	0
	.byte	55
	.byte	46
	.byte	-47
	.byte	0
	.byte	-117
	.byte	66
	.byte	1
	.byte	-124
	.byte	23
	.byte	-68
	.byte	-125
	.byte	64
	.byte	50
	.byte	-67
	.byte	-103
	.byte	-68
	.byte	-102
	.byte	-70
	.byte	-70
	.byte	-67
	.byte	14
	.byte	-72
	.byte	40
	.byte	-71
	.byte	-70
	.byte	-71
	.byte	9
	.byte	88
	.byte	26
	.byte	37
	.byte	13
	.byte	46
	.byte	-49
	.byte	0
	.byte	119
	.byte	-126
	.byte	-123
	.byte	127
	.byte	-90
	.byte	127
	.byte	116
	.byte	127
	.byte	-109
	.byte	127
	.byte	-46
	.byte	127
	.byte	-64
	.byte	127
	.byte	-104
	.byte	46
	.byte	-47
	.byte	-61
	.byte	3
	.byte	46
	.byte	-49
	.byte	0
	.byte	8
	.byte	26
	.byte	-80
	.byte	127
	.byte	1
	.byte	48
	.byte	1
	.byte	47
	.byte	35
	.byte	46
	.byte	-47
	.byte	0
	.byte	1
	.byte	46
	.byte	-47
	.byte	0
	.byte	-47
	.byte	111
	.byte	65
	.byte	14
	.byte	20
	.byte	47
	.byte	-63
	.byte	111
	.byte	64
	.byte	-78
	.byte	11
	.byte	47
	.byte	67
	.byte	-78
	.byte	9
	.byte	47
	.byte	9
	.byte	84
	.byte	49
	.byte	86
	.byte	-104
	.byte	46
	.byte	11
	.byte	-60
	.byte	0
	.byte	-112
	.byte	6
	.byte	47
	.byte	-79
	.byte	111
	.byte	35
	.byte	46
	.byte	-48
	.byte	0
	.byte	3
	.byte	45
	.byte	-79
	.byte	111
	.byte	35
	.byte	46
	.byte	-48
	.byte	0
	.byte	-47
	.byte	111
	.byte	35
	.byte	46
	.byte	-47
	.byte	0
	.byte	3
	.byte	46
	.byte	-47
	.byte	0
	.byte	65
	.byte	-126
	.byte	35
	.byte	46
	.byte	-47
	.byte	0
	.byte	9
	.byte	80
	.byte	49
	.byte	82
	.byte	18
	.byte	64
	.byte	82
	.byte	66
	.byte	0
	.byte	46
	.byte	18
	.byte	64
	.byte	82
	.byte	66
	.byte	0
	.byte	46
	.byte	0
	.byte	64
	.byte	64
	.byte	66
	.byte	0
	.byte	46
	.byte	3
	.byte	46
	.byte	-48
	.byte	0
	.byte	-32
	.byte	111
	.byte	-104
	.byte	46
	.byte	-107
	.byte	-49
	.byte	-79
	.byte	111
	.byte	35
	.byte	46
	.byte	-49
	.byte	0
	.byte	6
	.byte	45
	.byte	55
	.byte	46
	.byte	-50
	.byte	0
	.byte	-32
	.byte	111
	.byte	1
	.byte	48
	.byte	-104
	.byte	46
	.byte	-107
	.byte	-49
	.byte	-5
	.byte	111
	.byte	112
	.byte	95
	.byte	-72
	.byte	46
	.byte	-48
	.byte	80
	.byte	-128
	.byte	127
	.byte	-111
	.byte	127
	.byte	-41
	.byte	127
	.byte	-59
	.byte	127
	.byte	-77
	.byte	127
	.byte	-94
	.byte	127
	.byte	-28
	.byte	127
	.byte	-10
	.byte	127
	.byte	123
	.byte	127
	.byte	0
	.byte	46
	.byte	53
	.byte	80
	.byte	0
	.byte	46
	.byte	1
	.byte	64
	.byte	-97
	.byte	-68
	.byte	-97
	.byte	-72
	.byte	64
	.byte	-112
	.byte	2
	.byte	47
	.byte	49
	.byte	48
	.byte	35
	.byte	46
	.byte	105
	.byte	-11
	.byte	56
	.byte	-126
	.byte	97
	.byte	127
	.byte	32
	.byte	48
	.byte	65
	.byte	64
	.byte	35
	.byte	46
	.byte	-42
	.byte	0
	.byte	3
	.byte	46
	.byte	-42
	.byte	0
	.byte	8
	.byte	8
	.byte	0
	.byte	-78
	.byte	17
	.byte	47
	.byte	51
	.byte	80
	.byte	26
	.byte	37
	.byte	18
	.byte	64
	.byte	50
	.byte	127
	.byte	115
	.byte	-126
	.byte	18
	.byte	64
	.byte	66
	.byte	127
	.byte	0
	.byte	46
	.byte	0
	.byte	64
	.byte	80
	.byte	127
	.byte	-104
	.byte	46
	.byte	106
	.byte	-42
	.byte	1
	.byte	46
	.byte	97
	.byte	-9
	.byte	1
	.byte	49
	.byte	1
	.byte	10
	.byte	33
	.byte	46
	.byte	97
	.byte	-9
	.byte	-128
	.byte	48
	.byte	3
	.byte	46
	.byte	-42
	.byte	0
	.byte	8
	.byte	8
	.byte	0
	.byte	-78
	.byte	64
	.byte	47
	.byte	3
	.byte	46
	.byte	-119
	.byte	0
	.byte	23
	.byte	-68
	.byte	-106
	.byte	-68
	.byte	15
	.byte	-72
	.byte	-97
	.byte	-72
	.byte	64
	.byte	-112
	.byte	33
	.byte	46
	.byte	111
	.byte	1
	.byte	16
	.byte	48
	.byte	1
	.byte	48
	.byte	42
	.byte	47
	.byte	3
	.byte	46
	.byte	107
	.byte	1
	.byte	68
	.byte	-78
	.byte	5
	.byte	47
	.byte	71
	.byte	-78
	.byte	0
	.byte	48
	.byte	45
	.byte	47
	.byte	33
	.byte	46
	.byte	-42
	.byte	0
	.byte	43
	.byte	45
	.byte	3
	.byte	46
	.byte	-3
	.byte	-11
	.byte	-98
	.byte	-68
	.byte	-97
	.byte	-72
	.byte	64
	.byte	-112
	.byte	20
	.byte	47
	.byte	3
	.byte	46
	.byte	-4
	.byte	-11
	.byte	-103
	.byte	-68
	.byte	-97
	.byte	-72
	.byte	64
	.byte	-112
	.byte	14
	.byte	47
	.byte	3
	.byte	46
	.byte	73
	.byte	-15
	.byte	55
	.byte	84
	.byte	74
	.byte	8
	.byte	64
	.byte	-112
	.byte	8
	.byte	47
	.byte	-104
	.byte	46
	.byte	-23
	.byte	1
	.byte	0
	.byte	-78
	.byte	16
	.byte	48
	.byte	3
	.byte	47
	.byte	80
	.byte	48
	.byte	33
	.byte	46
	.byte	107
	.byte	1
	.byte	16
	.byte	45
	.byte	-104
	.byte	46
	.byte	36
	.byte	-74
	.byte	0
	.byte	48
	.byte	33
	.byte	46
	.byte	-42
	.byte	0
	.byte	10
	.byte	45
	.byte	5
	.byte	46
	.byte	105
	.byte	-9
	.byte	45
	.byte	-67
	.byte	47
	.byte	-71
	.byte	-128
	.byte	-78
	.byte	1
	.byte	47
	.byte	33
	.byte	46
	.byte	-41
	.byte	0
	.byte	35
	.byte	46
	.byte	-42
	.byte	0
	.byte	96
	.byte	111
	.byte	-31
	.byte	49
	.byte	1
	.byte	66
	.byte	0
	.byte	46
	.byte	-10
	.byte	111
	.byte	-28
	.byte	111
	.byte	-128
	.byte	111
	.byte	-111
	.byte	111
	.byte	-94
	.byte	111
	.byte	-77
	.byte	111
	.byte	-59
	.byte	111
	.byte	-41
	.byte	111
	.byte	123
	.byte	111
	.byte	48
	.byte	95
	.byte	-56
	.byte	46
	.byte	-96
	.byte	80
	.byte	-126
	.byte	127
	.byte	-112
	.byte	127
	.byte	-41
	.byte	127
	.byte	-59
	.byte	127
	.byte	-77
	.byte	127
	.byte	-95
	.byte	127
	.byte	-28
	.byte	127
	.byte	-10
	.byte	127
	.byte	123
	.byte	127
	.byte	0
	.byte	46
	.byte	53
	.byte	84
	.byte	0
	.byte	46
	.byte	-128
	.byte	64
	.byte	15
	.byte	-68
	.byte	15
	.byte	-72
	.byte	0
	.byte	-112
	.byte	2
	.byte	47
	.byte	48
	.byte	48
	.byte	33
	.byte	46
	.byte	105
	.byte	-11
	.byte	-73
	.byte	-124
	.byte	98
	.byte	127
	.byte	-104
	.byte	46
	.byte	-23
	.byte	1
	.byte	0
	.byte	-78
	.byte	-112
	.byte	46
	.byte	127
	.byte	-77
	.byte	5
	.byte	46
	.byte	-96
	.byte	0
	.byte	3
	.byte	46
	.byte	-116
	.byte	0
	.byte	1
	.byte	46
	.byte	-114
	.byte	0
	.byte	-93
	.byte	-67
	.byte	-97
	.byte	-72
	.byte	15
	.byte	-72
	.byte	8
	.byte	10
	.byte	-65
	.byte	-71
	.byte	-92
	.byte	-68
	.byte	3
	.byte	10
	.byte	34
	.byte	-66
	.byte	-97
	.byte	-72
	.byte	7
	.byte	46
	.byte	-106
	.byte	0
	.byte	65
	.byte	10
	.byte	79
	.byte	-70
	.byte	5
	.byte	46
	.byte	-104
	.byte	0
	.byte	-77
	.byte	-67
	.byte	12
	.byte	11
	.byte	1
	.byte	46
	.byte	-112
	.byte	0
	.byte	-65
	.byte	-71
	.byte	47
	.byte	-67
	.byte	3
	.byte	46
	.byte	-97
	.byte	0
	.byte	47
	.byte	-71
	.byte	15
	.byte	-68
	.byte	-29
	.byte	10
	.byte	15
	.byte	-72
	.byte	-97
	.byte	-68
	.byte	-102
	.byte	10
	.byte	-97
	.byte	-72
	.byte	-112
	.byte	10
	.byte	-111
	.byte	10
	.byte	37
	.byte	46
	.byte	121
	.byte	0
	.byte	5
	.byte	46
	.byte	-63
	.byte	-11
	.byte	46
	.byte	-67
	.byte	46
	.byte	-71
	.byte	1
	.byte	46
	.byte	123
	.byte	0
	.byte	49
	.byte	48
	.byte	-118
	.byte	4
	.byte	0
	.byte	-112
	.byte	11
	.byte	47
	.byte	1
	.byte	46
	.byte	107
	.byte	1
	.byte	4
	.byte	-94
	.byte	7
	.byte	47
	.byte	1
	.byte	46
	.byte	121
	.byte	0
	.byte	0
	.byte	-112
	.byte	3
	.byte	47
	.byte	1
	.byte	46
	.byte	-39
	.byte	0
	.byte	0
	.byte	-78
	.byte	25
	.byte	47
	.byte	59
	.byte	80
	.byte	9
	.byte	82
	.byte	-104
	.byte	46
	.byte	1
	.byte	2
	.byte	5
	.byte	46
	.byte	-40
	.byte	0
	.byte	37
	.byte	46
	.byte	-121
	.byte	1
	.byte	5
	.byte	46
	.byte	-40
	.byte	0
	.byte	-128
	.byte	-112
	.byte	2
	.byte	47
	.byte	18
	.byte	48
	.byte	37
	.byte	46
	.byte	-40
	.byte	0
	.byte	1
	.byte	46
	.byte	-39
	.byte	0
	.byte	0
	.byte	-78
	.byte	16
	.byte	48
	.byte	5
	.byte	46
	.byte	121
	.byte	0
	.byte	1
	.byte	47
	.byte	33
	.byte	46
	.byte	121
	.byte	0
	.byte	37
	.byte	46
	.byte	-39
	.byte	0
	.byte	-104
	.byte	46
	.byte	-14
	.byte	1
	.byte	0
	.byte	-78
	.byte	34
	.byte	48
	.byte	33
	.byte	48
	.byte	3
	.byte	47
	.byte	1
	.byte	46
	.byte	123
	.byte	0
	.byte	0
	.byte	-112
	.byte	5
	.byte	47
	.byte	1
	.byte	46
	.byte	122
	.byte	0
	.byte	0
	.byte	-112
	.byte	48
	.byte	48
	.byte	1
	.byte	48
	.byte	65
	.byte	34
	.byte	1
	.byte	46
	.byte	-108
	.byte	1
	.byte	8
	.byte	26
	.byte	14
	.byte	47
	.byte	35
	.byte	46
	.byte	-108
	.byte	1
	.byte	51
	.byte	48
	.byte	61
	.byte	80
	.byte	11
	.byte	9
	.byte	1
	.byte	64
	.byte	57
	.byte	86
	.byte	70
	.byte	-66
	.byte	75
	.byte	8
	.byte	76
	.byte	10
	.byte	1
	.byte	66
	.byte	10
	.byte	-128
	.byte	37
	.byte	82
	.byte	1
	.byte	66
	.byte	0
	.byte	46
	.byte	1
	.byte	46
	.byte	121
	.byte	0
	.byte	0
	.byte	-78
	.byte	31
	.byte	47
	.byte	3
	.byte	46
	.byte	-64
	.byte	-11
	.byte	-16
	.byte	48
	.byte	72
	.byte	8
	.byte	71
	.byte	-86
	.byte	116
	.byte	48
	.byte	7
	.byte	46
	.byte	-36
	.byte	0
	.byte	97
	.byte	34
	.byte	75
	.byte	26
	.byte	5
	.byte	47
	.byte	7
	.byte	46
	.byte	102
	.byte	-11
	.byte	-65
	.byte	-67
	.byte	-65
	.byte	-71
	.byte	-64
	.byte	-112
	.byte	11
	.byte	47
	.byte	63
	.byte	86
	.byte	4
	.byte	48
	.byte	-44
	.byte	66
	.byte	-46
	.byte	66
	.byte	-127
	.byte	4
	.byte	36
	.byte	-67
	.byte	-2
	.byte	-128
	.byte	-127
	.byte	-124
	.byte	-60
	.byte	66
	.byte	35
	.byte	46
	.byte	-36
	.byte	0
	.byte	2
	.byte	66
	.byte	2
	.byte	50
	.byte	37
	.byte	46
	.byte	98
	.byte	-11
	.byte	5
	.byte	46
	.byte	109
	.byte	1
	.byte	-127
	.byte	-128
	.byte	3
	.byte	46
	.byte	-118
	.byte	0
	.byte	33
	.byte	46
	.byte	109
	.byte	1
	.byte	15
	.byte	86
	.byte	98
	.byte	111
	.byte	75
	.byte	8
	.byte	0
	.byte	49
	.byte	-128
	.byte	66
	.byte	64
	.byte	-78
	.byte	11
	.byte	47
	.byte	-14
	.byte	62
	.byte	1
	.byte	46
	.byte	-54
	.byte	-11
	.byte	-126
	.byte	8
	.byte	37
	.byte	46
	.byte	-54
	.byte	-11
	.byte	5
	.byte	46
	.byte	89
	.byte	-11
	.byte	-32
	.byte	63
	.byte	-112
	.byte	8
	.byte	37
	.byte	46
	.byte	89
	.byte	-11
	.byte	-10
	.byte	111
	.byte	-28
	.byte	111
	.byte	-95
	.byte	111
	.byte	-77
	.byte	111
	.byte	-59
	.byte	111
	.byte	-41
	.byte	111
	.byte	123
	.byte	111
	.byte	-126
	.byte	111
	.byte	-112
	.byte	111
	.byte	96
	.byte	95
	.byte	-56
	.byte	46
	.byte	-64
	.byte	80
	.byte	-128
	.byte	127
	.byte	-110
	.byte	127
	.byte	-43
	.byte	127
	.byte	-60
	.byte	127
	.byte	-77
	.byte	127
	.byte	-95
	.byte	127
	.byte	-25
	.byte	127
	.byte	-10
	.byte	127
	.byte	123
	.byte	127
	.byte	0
	.byte	46
	.byte	53
	.byte	80
	.byte	0
	.byte	46
	.byte	2
	.byte	64
	.byte	47
	.byte	-67
	.byte	47
	.byte	-71
	.byte	-128
	.byte	-112
	.byte	2
	.byte	47
	.byte	50
	.byte	48
	.byte	37
	.byte	46
	.byte	105
	.byte	-11
	.byte	55
	.byte	-128
	.byte	0
	.byte	46
	.byte	0
	.byte	64
	.byte	96
	.byte	127
	.byte	-104
	.byte	46
	.byte	-23
	.byte	1
	.byte	11
	.byte	48
	.byte	91
	.byte	127
	.byte	64
	.byte	127
	.byte	2
	.byte	50
	.byte	100
	.byte	111
	.byte	37
	.byte	82
	.byte	67
	.byte	86
	.byte	11
	.byte	48
	.byte	-128
	.byte	46
	.byte	101
	.byte	-76
	.byte	98
	.byte	9
	.byte	64
	.byte	-77
	.byte	11
	.byte	47
	.byte	0
	.byte	-78
	.byte	3
	.byte	47
	.byte	11
	.byte	46
	.byte	121
	.byte	0
	.byte	64
	.byte	-111
	.byte	3
	.byte	47
	.byte	-62
	.byte	-118
	.byte	37
	.byte	46
	.byte	100
	.byte	-11
	.byte	75
	.byte	67
	.byte	37
	.byte	46
	.byte	96
	.byte	-11
	.byte	33
	.byte	9
	.byte	0
	.byte	-77
	.byte	121
	.byte	47
	.byte	-104
	.byte	46
	.byte	-14
	.byte	1
	.byte	0
	.byte	-78
	.byte	6
	.byte	47
	.byte	1
	.byte	46
	.byte	123
	.byte	0
	.byte	0
	.byte	-78
	.byte	2
	.byte	47
	.byte	64
	.byte	111
	.byte	0
	.byte	-112
	.byte	10
	.byte	47
	.byte	1
	.byte	46
	.byte	-37
	.byte	0
	.byte	0
	.byte	-112
	.byte	25
	.byte	47
	.byte	16
	.byte	48
	.byte	33
	.byte	46
	.byte	-37
	.byte	0
	.byte	0
	.byte	48
	.byte	-104
	.byte	46
	.byte	13
	.byte	-74
	.byte	19
	.byte	45
	.byte	1
	.byte	46
	.byte	-61
	.byte	-11
	.byte	12
	.byte	-68
	.byte	15
	.byte	-72
	.byte	18
	.byte	48
	.byte	16
	.byte	4
	.byte	3
	.byte	-80
	.byte	38
	.byte	37
	.byte	69
	.byte	80
	.byte	7
	.byte	82
	.byte	-104
	.byte	46
	.byte	1
	.byte	2
	.byte	16
	.byte	48
	.byte	33
	.byte	46
	.byte	-103
	.byte	1
	.byte	2
	.byte	48
	.byte	80
	.byte	127
	.byte	37
	.byte	46
	.byte	-37
	.byte	0
	.byte	64
	.byte	111
	.byte	0
	.byte	-78
	.byte	3
	.byte	47
	.byte	5
	.byte	46
	.byte	122
	.byte	0
	.byte	-128
	.byte	-112
	.byte	14
	.byte	47
	.byte	5
	.byte	46
	.byte	-38
	.byte	0
	.byte	-128
	.byte	-112
	.byte	54
	.byte	47
	.byte	17
	.byte	48
	.byte	2
	.byte	48
	.byte	35
	.byte	46
	.byte	-38
	.byte	0
	.byte	35
	.byte	46
	.byte	116
	.byte	1
	.byte	37
	.byte	46
	.byte	125
	.byte	0
	.byte	37
	.byte	46
	.byte	-98
	.byte	1
	.byte	44
	.byte	45
	.byte	5
	.byte	46
	.byte	-98
	.byte	1
	.byte	-127
	.byte	-126
	.byte	35
	.byte	46
	.byte	-98
	.byte	1
	.byte	18
	.byte	48
	.byte	74
	.byte	8
	.byte	64
	.byte	-78
	.byte	5
	.byte	47
	.byte	3
	.byte	46
	.byte	88
	.byte	-11
	.byte	-104
	.byte	-68
	.byte	-98
	.byte	-72
	.byte	67
	.byte	-112
	.byte	26
	.byte	47
	.byte	1
	.byte	46
	.byte	-63
	.byte	-11
	.byte	14
	.byte	-67
	.byte	48
	.byte	48
	.byte	46
	.byte	-71
	.byte	-126
	.byte	4
	.byte	1
	.byte	82
	.byte	71
	.byte	80
	.byte	98
	.byte	127
	.byte	-104
	.byte	46
	.byte	1
	.byte	2
	.byte	1
	.byte	46
	.byte	-35
	.byte	0
	.byte	1
	.byte	-112
	.byte	73
	.byte	80
	.byte	3
	.byte	82
	.byte	2
	.byte	47
	.byte	98
	.byte	111
	.byte	-104
	.byte	46
	.byte	1
	.byte	2
	.byte	18
	.byte	48
	.byte	37
	.byte	46
	.byte	-99
	.byte	1
	.byte	0
	.byte	48
	.byte	33
	.byte	46
	.byte	-38
	.byte	0
	.byte	64
	.byte	111
	.byte	82
	.byte	127
	.byte	0
	.byte	46
	.byte	82
	.byte	111
	.byte	-128
	.byte	-112
	.byte	5
	.byte	47
	.byte	2
	.byte	48
	.byte	37
	.byte	46
	.byte	-108
	.byte	1
	.byte	37
	.byte	84
	.byte	37
	.byte	46
	.byte	100
	.byte	-11
	.byte	37
	.byte	82
	.byte	35
	.byte	46
	.byte	96
	.byte	-11
	.byte	2
	.byte	50
	.byte	67
	.byte	86
	.byte	11
	.byte	48
	.byte	0
	.byte	-112
	.byte	11
	.byte	47
	.byte	55
	.byte	46
	.byte	-40
	.byte	0
	.byte	65
	.byte	80
	.byte	33
	.byte	46
	.byte	90
	.byte	-14
	.byte	-104
	.byte	46
	.byte	-35
	.byte	3
	.byte	64
	.byte	111
	.byte	2
	.byte	50
	.byte	37
	.byte	82
	.byte	67
	.byte	86
	.byte	11
	.byte	48
	.byte	9
	.byte	46
	.byte	96
	.byte	-11
	.byte	98
	.byte	9
	.byte	64
	.byte	-111
	.byte	-112
	.byte	46
	.byte	-55
	.byte	-77
	.byte	97
	.byte	9
	.byte	64
	.byte	-111
	.byte	-112
	.byte	46
	.byte	-55
	.byte	-77
	.byte	-128
	.byte	111
	.byte	-110
	.byte	111
	.byte	-95
	.byte	111
	.byte	-77
	.byte	111
	.byte	-60
	.byte	111
	.byte	-43
	.byte	111
	.byte	123
	.byte	111
	.byte	-10
	.byte	111
	.byte	-25
	.byte	111
	.byte	64
	.byte	95
	.byte	-56
	.byte	46
	.byte	75
	.byte	82
	.byte	0
	.byte	81
	.byte	82
	.byte	64
	.byte	71
	.byte	64
	.byte	-8
	.byte	-68
	.byte	-100
	.byte	-71
	.byte	1
	.byte	46
	.byte	-97
	.byte	0
	.byte	-13
	.byte	127
	.byte	-113
	.byte	-67
	.byte	63
	.byte	-70
	.byte	26
	.byte	37
	.byte	120
	.byte	-72
	.byte	89
	.byte	86
	.byte	-45
	.byte	8
	.byte	117
	.byte	-116
	.byte	115
	.byte	-118
	.byte	-21
	.byte	127
	.byte	-4
	.byte	-65
	.byte	-44
	.byte	127
	.byte	11
	.byte	48
	.byte	-4
	.byte	-69
	.byte	28
	.byte	11
	.byte	75
	.byte	127
	.byte	-117
	.byte	67
	.byte	75
	.byte	67
	.byte	33
	.byte	46
	.byte	-28
	.byte	0
	.byte	0
	.byte	-77
	.byte	-89
	.byte	127
	.byte	-75
	.byte	127
	.byte	-58
	.byte	127
	.byte	-109
	.byte	127
	.byte	-112
	.byte	46
	.byte	53
	.byte	-75
	.byte	1
	.byte	46
	.byte	-2
	.byte	0
	.byte	0
	.byte	-78
	.byte	11
	.byte	47
	.byte	79
	.byte	82
	.byte	1
	.byte	46
	.byte	-7
	.byte	0
	.byte	-126
	.byte	127
	.byte	-104
	.byte	46
	.byte	-69
	.byte	-52
	.byte	11
	.byte	48
	.byte	55
	.byte	46
	.byte	-2
	.byte	0
	.byte	-126
	.byte	111
	.byte	-109
	.byte	111
	.byte	26
	.byte	37
	.byte	-64
	.byte	-78
	.byte	-117
	.byte	127
	.byte	20
	.byte	47
	.byte	38
	.byte	-68
	.byte	37
	.byte	-67
	.byte	6
	.byte	-72
	.byte	47
	.byte	-71
	.byte	-128
	.byte	-78
	.byte	20
	.byte	-80
	.byte	12
	.byte	47
	.byte	81
	.byte	80
	.byte	83
	.byte	84
	.byte	11
	.byte	48
	.byte	11
	.byte	46
	.byte	-96
	.byte	0
	.byte	87
	.byte	88
	.byte	27
	.byte	66
	.byte	-101
	.byte	66
	.byte	108
	.byte	9
	.byte	43
	.byte	46
	.byte	-96
	.byte	0
	.byte	11
	.byte	66
	.byte	-117
	.byte	66
	.byte	-122
	.byte	127
	.byte	112
	.byte	-124
	.byte	91
	.byte	80
	.byte	-40
	.byte	8
	.byte	85
	.byte	82
	.byte	9
	.byte	80
	.byte	114
	.byte	127
	.byte	99
	.byte	127
	.byte	-104
	.byte	46
	.byte	-62
	.byte	-64
	.byte	-47
	.byte	111
	.byte	98
	.byte	111
	.byte	-47
	.byte	10
	.byte	1
	.byte	46
	.byte	-7
	.byte	0
	.byte	-59
	.byte	111
	.byte	-76
	.byte	111
	.byte	114
	.byte	111
	.byte	79
	.byte	82
	.byte	77
	.byte	92
	.byte	-104
	.byte	46
	.byte	6
	.byte	-51
	.byte	83
	.byte	111
	.byte	-112
	.byte	111
	.byte	81
	.byte	82
	.byte	-64
	.byte	-78
	.byte	4
	.byte	-67
	.byte	84
	.byte	64
	.byte	-81
	.byte	-71
	.byte	69
	.byte	64
	.byte	-47
	.byte	127
	.byte	2
	.byte	48
	.byte	6
	.byte	47
	.byte	-64
	.byte	-78
	.byte	2
	.byte	48
	.byte	3
	.byte	47
	.byte	83
	.byte	92
	.byte	18
	.byte	48
	.byte	-108
	.byte	67
	.byte	-123
	.byte	67
	.byte	3
	.byte	-65
	.byte	111
	.byte	-69
	.byte	-128
	.byte	-77
	.byte	32
	.byte	47
	.byte	54
	.byte	111
	.byte	38
	.byte	1
	.byte	70
	.byte	111
	.byte	110
	.byte	3
	.byte	69
	.byte	66
	.byte	-64
	.byte	-112
	.byte	41
	.byte	46
	.byte	-6
	.byte	0
	.byte	83
	.byte	82
	.byte	20
	.byte	47
	.byte	83
	.byte	92
	.byte	0
	.byte	46
	.byte	-109
	.byte	65
	.byte	-122
	.byte	65
	.byte	-29
	.byte	4
	.byte	-82
	.byte	7
	.byte	-128
	.byte	-85
	.byte	4
	.byte	47
	.byte	-128
	.byte	-111
	.byte	10
	.byte	47
	.byte	-122
	.byte	111
	.byte	115
	.byte	15
	.byte	7
	.byte	47
	.byte	-125
	.byte	111
	.byte	-64
	.byte	-78
	.byte	4
	.byte	47
	.byte	84
	.byte	66
	.byte	69
	.byte	66
	.byte	18
	.byte	48
	.byte	4
	.byte	44
	.byte	17
	.byte	48
	.byte	2
	.byte	44
	.byte	17
	.byte	48
	.byte	17
	.byte	48
	.byte	2
	.byte	-68
	.byte	15
	.byte	-72
	.byte	-62
	.byte	127
	.byte	0
	.byte	-112
	.byte	6
	.byte	47
	.byte	49
	.byte	48
	.byte	35
	.byte	46
	.byte	120
	.byte	1
	.byte	35
	.byte	46
	.byte	-33
	.byte	0
	.byte	11
	.byte	44
	.byte	1
	.byte	48
	.byte	1
	.byte	46
	.byte	-33
	.byte	0
	.byte	5
	.byte	46
	.byte	120
	.byte	1
	.byte	16
	.byte	26
	.byte	2
	.byte	47
	.byte	33
	.byte	46
	.byte	120
	.byte	1
	.byte	1
	.byte	45
	.byte	1
	.byte	48
	.byte	-16
	.byte	111
	.byte	-104
	.byte	46
	.byte	-107
	.byte	-49
	.byte	-63
	.byte	111
	.byte	-96
	.byte	111
	.byte	-104
	.byte	46
	.byte	-107
	.byte	-49
	.byte	-46
	.byte	111
	.byte	33
	.byte	82
	.byte	1
	.byte	46
	.byte	-6
	.byte	0
	.byte	-126
	.byte	64
	.byte	80
	.byte	66
	.byte	17
	.byte	44
	.byte	66
	.byte	66
	.byte	16
	.byte	48
	.byte	49
	.byte	48
	.byte	33
	.byte	46
	.byte	-2
	.byte	0
	.byte	35
	.byte	46
	.byte	120
	.byte	1
	.byte	35
	.byte	46
	.byte	-33
	.byte	0
	.byte	-16
	.byte	111
	.byte	1
	.byte	48
	.byte	-104
	.byte	46
	.byte	-107
	.byte	-49
	.byte	-96
	.byte	111
	.byte	1
	.byte	48
	.byte	-104
	.byte	46
	.byte	-107
	.byte	-49
	.byte	0
	.byte	46
	.byte	-21
	.byte	111
	.byte	0
	.byte	95
	.byte	-72
	.byte	46
	.byte	7
	.byte	46
	.byte	-97
	.byte	0
	.byte	59
	.byte	-68
	.byte	96
	.byte	80
	.byte	-65
	.byte	-67
	.byte	12
	.byte	-72
	.byte	-16
	.byte	127
	.byte	-64
	.byte	-78
	.byte	-21
	.byte	127
	.byte	45
	.byte	47
	.byte	7
	.byte	46
	.byte	-1
	.byte	0
	.byte	-61
	.byte	64
	.byte	1
	.byte	46
	.byte	105
	.byte	1
	.byte	3
	.byte	26
	.byte	17
	.byte	47
	.byte	95
	.byte	82
	.byte	39
	.byte	46
	.byte	105
	.byte	1
	.byte	80
	.byte	64
	.byte	-96
	.byte	127
	.byte	120
	.byte	-128
	.byte	67
	.byte	64
	.byte	-48
	.byte	127
	.byte	-77
	.byte	127
	.byte	-104
	.byte	46
	.byte	100
	.byte	-49
	.byte	-48
	.byte	111
	.byte	7
	.byte	-128
	.byte	-93
	.byte	111
	.byte	19
	.byte	66
	.byte	0
	.byte	46
	.byte	-77
	.byte	111
	.byte	3
	.byte	66
	.byte	3
	.byte	48
	.byte	1
	.byte	46
	.byte	-33
	.byte	0
	.byte	1
	.byte	-78
	.byte	1
	.byte	47
	.byte	2
	.byte	-112
	.byte	0
	.byte	47
	.byte	19
	.byte	48
	.byte	26
	.byte	37
	.byte	124
	.byte	-120
	.byte	1
	.byte	46
	.byte	-1
	.byte	0
	.byte	93
	.byte	82
	.byte	9
	.byte	84
	.byte	-104
	.byte	46
	.byte	-60
	.byte	-50
	.byte	-63
	.byte	111
	.byte	-16
	.byte	111
	.byte	-104
	.byte	46
	.byte	-107
	.byte	-49
	.byte	4
	.byte	45
	.byte	1
	.byte	48
	.byte	-16
	.byte	111
	.byte	-104
	.byte	46
	.byte	-107
	.byte	-49
	.byte	-21
	.byte	111
	.byte	-96
	.byte	95
	.byte	-72
	.byte	46
	.byte	96
	.byte	81
	.byte	10
	.byte	37
	.byte	54
	.byte	-120
	.byte	-12
	.byte	127
	.byte	-21
	.byte	127
	.byte	0
	.byte	50
	.byte	107
	.byte	82
	.byte	50
	.byte	48
	.byte	19
	.byte	48
	.byte	-104
	.byte	46
	.byte	21
	.byte	-53
	.byte	10
	.byte	37
	.byte	51
	.byte	-124
	.byte	-46
	.byte	127
	.byte	67
	.byte	48
	.byte	9
	.byte	80
	.byte	103
	.byte	82
	.byte	-104
	.byte	46
	.byte	-107
	.byte	-63
	.byte	-46
	.byte	111
	.byte	97
	.byte	82
	.byte	-104
	.byte	46
	.byte	-41
	.byte	-57
	.byte	42
	.byte	37
	.byte	-80
	.byte	-122
	.byte	-64
	.byte	127
	.byte	-45
	.byte	127
	.byte	-81
	.byte	-124
	.byte	99
	.byte	80
	.byte	-15
	.byte	111
	.byte	-104
	.byte	46
	.byte	77
	.byte	-56
	.byte	42
	.byte	37
	.byte	-82
	.byte	-118
	.byte	-86
	.byte	-120
	.byte	-14
	.byte	110
	.byte	101
	.byte	80
	.byte	-63
	.byte	111
	.byte	-45
	.byte	111
	.byte	-12
	.byte	127
	.byte	-104
	.byte	46
	.byte	-74
	.byte	-56
	.byte	-32
	.byte	110
	.byte	0
	.byte	-78
	.byte	50
	.byte	47
	.byte	109
	.byte	84
	.byte	-125
	.byte	-122
	.byte	-15
	.byte	111
	.byte	-61
	.byte	127
	.byte	4
	.byte	48
	.byte	48
	.byte	48
	.byte	-12
	.byte	127
	.byte	-48
	.byte	127
	.byte	-78
	.byte	127
	.byte	-29
	.byte	48
	.byte	-59
	.byte	111
	.byte	86
	.byte	64
	.byte	69
	.byte	65
	.byte	40
	.byte	8
	.byte	3
	.byte	20
	.byte	14
	.byte	-76
	.byte	8
	.byte	-68
	.byte	-126
	.byte	64
	.byte	16
	.byte	10
	.byte	105
	.byte	84
	.byte	38
	.byte	5
	.byte	-111
	.byte	127
	.byte	68
	.byte	40
	.byte	-93
	.byte	127
	.byte	-104
	.byte	46
	.byte	-39
	.byte	-64
	.byte	8
	.byte	-71
	.byte	51
	.byte	48
	.byte	83
	.byte	9
	.byte	-63
	.byte	111
	.byte	-45
	.byte	111
	.byte	-12
	.byte	111
	.byte	-125
	.byte	23
	.byte	71
	.byte	64
	.byte	108
	.byte	21
	.byte	-78
	.byte	111
	.byte	-66
	.byte	9
	.byte	117
	.byte	11
	.byte	-112
	.byte	66
	.byte	69
	.byte	66
	.byte	81
	.byte	14
	.byte	50
	.byte	-68
	.byte	2
	.byte	-119
	.byte	-95
	.byte	111
	.byte	126
	.byte	-122
	.byte	-12
	.byte	127
	.byte	-48
	.byte	127
	.byte	-78
	.byte	127
	.byte	4
	.byte	48
	.byte	-111
	.byte	111
	.byte	-42
	.byte	47
	.byte	-21
	.byte	111
	.byte	-96
	.byte	94
	.byte	-72
	.byte	46
	.byte	1
	.byte	46
	.byte	119
	.byte	-9
	.byte	9
	.byte	-68
	.byte	15
	.byte	-72
	.byte	0
	.byte	-78
	.byte	16
	.byte	80
	.byte	-5
	.byte	127
	.byte	16
	.byte	48
	.byte	11
	.byte	47
	.byte	3
	.byte	46
	.byte	-118
	.byte	0
	.byte	-106
	.byte	-68
	.byte	-97
	.byte	-72
	.byte	64
	.byte	-78
	.byte	5
	.byte	47
	.byte	3
	.byte	46
	.byte	104
	.byte	-9
	.byte	-98
	.byte	-68
	.byte	-97
	.byte	-72
	.byte	64
	.byte	-78
	.byte	7
	.byte	47
	.byte	3
	.byte	46
	.byte	106
	.byte	1
	.byte	65
	.byte	-112
	.byte	1
	.byte	47
	.byte	-104
	.byte	46
	.byte	13
	.byte	-74
	.byte	3
	.byte	44
	.byte	0
	.byte	48
	.byte	33
	.byte	46
	.byte	106
	.byte	1
	.byte	-5
	.byte	111
	.byte	-16
	.byte	95
	.byte	-72
	.byte	46
	.byte	32
	.byte	80
	.byte	-32
	.byte	127
	.byte	-5
	.byte	127
	.byte	0
	.byte	46
	.byte	97
	.byte	80
	.byte	-104
	.byte	46
	.byte	59
	.byte	-56
	.byte	99
	.byte	80
	.byte	-104
	.byte	46
	.byte	-89
	.byte	-56
	.byte	5
	.byte	80
	.byte	-104
	.byte	46
	.byte	85
	.byte	-52
	.byte	-31
	.byte	111
	.byte	101
	.byte	80
	.byte	-104
	.byte	46
	.byte	-32
	.byte	-55
	.byte	-5
	.byte	111
	.byte	0
	.byte	48
	.byte	-32
	.byte	95
	.byte	33
	.byte	46
	.byte	106
	.byte	1
	.byte	-72
	.byte	46
	.byte	3
	.byte	-68
	.byte	33
	.byte	46
	.byte	108
	.byte	1
	.byte	3
	.byte	46
	.byte	108
	.byte	1
	.byte	64
	.byte	-78
	.byte	16
	.byte	48
	.byte	33
	.byte	46
	.byte	124
	.byte	0
	.byte	1
	.byte	48
	.byte	5
	.byte	47
	.byte	5
	.byte	46
	.byte	111
	.byte	1
	.byte	-128
	.byte	-112
	.byte	1
	.byte	47
	.byte	35
	.byte	46
	.byte	111
	.byte	-11
	.byte	-64
	.byte	46
	.byte	33
	.byte	46
	.byte	112
	.byte	1
	.byte	48
	.byte	37
	.byte	0
	.byte	48
	.byte	33
	.byte	46
	.byte	90
	.byte	-11
	.byte	16
	.byte	80
	.byte	33
	.byte	46
	.byte	-34
	.byte	0
	.byte	33
	.byte	46
	.byte	-42
	.byte	0
	.byte	-5
	.byte	127
	.byte	-104
	.byte	46
	.byte	-11
	.byte	3
	.byte	64
	.byte	48
	.byte	33
	.byte	46
	.byte	107
	.byte	1
	.byte	-5
	.byte	111
	.byte	-16
	.byte	95
	.byte	3
	.byte	37
	.byte	-128
	.byte	46
	.byte	36
	.byte	-74
	.byte	1
	.byte	46
	.byte	-88
	.byte	0
	.byte	49
	.byte	37
	.byte	8
	.byte	-67
	.byte	113
	.byte	48
	.byte	32
	.byte	80
	.byte	44
	.byte	-71
	.byte	1
	.byte	9
	.byte	-14
	.byte	127
	.byte	0
	.byte	-111
	.byte	-21
	.byte	127
	.byte	10
	.byte	47
	.byte	1
	.byte	48
	.byte	-16
	.byte	111
	.byte	-104
	.byte	46
	.byte	-107
	.byte	-49
	.byte	19
	.byte	48
	.byte	39
	.byte	46
	.byte	116
	.byte	1
	.byte	-21
	.byte	111
	.byte	-64
	.byte	46
	.byte	0
	.byte	48
	.byte	-32
	.byte	95
	.byte	1
	.byte	46
	.byte	116
	.byte	1
	.byte	0
	.byte	-78
	.byte	5
	.byte	47
	.byte	6
	.byte	48
	.byte	-61
	.byte	80
	.byte	-104
	.byte	46
	.byte	-124
	.byte	-74
	.byte	45
	.byte	46
	.byte	116
	.byte	1
	.byte	5
	.byte	46
	.byte	115
	.byte	1
	.byte	-117
	.byte	-128
	.byte	-61
	.byte	82
	.byte	4
	.byte	66
	.byte	-104
	.byte	46
	.byte	-65
	.byte	-74
	.byte	16
	.byte	37
	.byte	-16
	.byte	111
	.byte	-15
	.byte	127
	.byte	-104
	.byte	46
	.byte	-107
	.byte	-49
	.byte	-16
	.byte	111
	.byte	0
	.byte	-112
	.byte	2
	.byte	47
	.byte	1
	.byte	46
	.byte	117
	.byte	1
	.byte	2
	.byte	45
	.byte	33
	.byte	46
	.byte	117
	.byte	1
	.byte	-21
	.byte	111
	.byte	-32
	.byte	95
	.byte	-72
	.byte	46
	.byte	10
	.byte	-126
	.byte	2
	.byte	48
	.byte	18
	.byte	66
	.byte	65
	.byte	14
	.byte	-4
	.byte	47
	.byte	55
	.byte	-128
	.byte	-59
	.byte	82
	.byte	17
	.byte	66
	.byte	0
	.byte	46
	.byte	-57
	.byte	82
	.byte	1
	.byte	66
	.byte	-72
	.byte	46
	.byte	7
	.byte	-120
	.byte	70
	.byte	-114
	.byte	6
	.byte	65
	.byte	60
	.byte	-117
	.byte	50
	.byte	26
	.byte	66
	.byte	65
	.byte	-57
	.byte	65
	.byte	22
	.byte	47
	.byte	-128
	.byte	-111
	.byte	35
	.byte	47
	.byte	87
	.byte	15
	.byte	22
	.byte	48
	.byte	12
	.byte	47
	.byte	6
	.byte	-128
	.byte	0
	.byte	46
	.byte	0
	.byte	64
	.byte	0
	.byte	-78
	.byte	4
	.byte	47
	.byte	69
	.byte	-126
	.byte	0
	.byte	46
	.byte	65
	.byte	64
	.byte	-47
	.byte	15
	.byte	2
	.byte	47
	.byte	6
	.byte	48
	.byte	6
	.byte	67
	.byte	70
	.byte	67
	.byte	-128
	.byte	-77
	.byte	17
	.byte	47
	.byte	3
	.byte	67
	.byte	71
	.byte	67
	.byte	-72
	.byte	46
	.byte	-41
	.byte	14
	.byte	12
	.byte	47
	.byte	67
	.byte	-126
	.byte	23
	.byte	4
	.byte	65
	.byte	64
	.byte	65
	.byte	15
	.byte	7
	.byte	47
	.byte	3
	.byte	67
	.byte	66
	.byte	-125
	.byte	71
	.byte	67
	.byte	0
	.byte	46
	.byte	67
	.byte	64
	.byte	-63
	.byte	-122
	.byte	67
	.byte	66
	.byte	-72
	.byte	46
	.byte	-72
	.byte	46
	.byte	-120
	.byte	-120
	.byte	-64
	.byte	80
	.byte	57
	.byte	-115
	.byte	-120
	.byte	-127
	.byte	-30
	.byte	127
	.byte	2
	.byte	48
	.byte	5
	.byte	64
	.byte	-14
	.byte	127
	.byte	65
	.byte	-85
	.byte	34
	.byte	48
	.byte	-107
	.byte	34
	.byte	-122
	.byte	65
	.byte	39
	.byte	94
	.byte	-102
	.byte	0
	.byte	4
	.byte	65
	.byte	55
	.byte	24
	.byte	102
	.byte	1
	.byte	-55
	.byte	86
	.byte	-21
	.byte	0
	.byte	-63
	.byte	127
	.byte	-77
	.byte	127
	.byte	-43
	.byte	127
	.byte	72
	.byte	-126
	.byte	57
	.byte	-128
	.byte	-126
	.byte	64
	.byte	-96
	.byte	127
	.byte	-111
	.byte	127
	.byte	-117
	.byte	127
	.byte	6
	.byte	48
	.byte	111
	.byte	90
	.byte	-53
	.byte	88
	.byte	111
	.byte	86
	.byte	-104
	.byte	46
	.byte	103
	.byte	-52
	.byte	-111
	.byte	111
	.byte	123
	.byte	-126
	.byte	-58
	.byte	111
	.byte	66
	.byte	64
	.byte	-127
	.byte	-124
	.byte	66
	.byte	66
	.byte	67
	.byte	-126
	.byte	-125
	.byte	-117
	.byte	66
	.byte	64
	.byte	-122
	.byte	-119
	.byte	123
	.byte	-126
	.byte	-124
	.byte	-121
	.byte	113
	.byte	127
	.byte	-128
	.byte	-78
	.byte	-107
	.byte	127
	.byte	100
	.byte	127
	.byte	80
	.byte	127
	.byte	2
	.byte	47
	.byte	-59
	.byte	64
	.byte	65
	.byte	-117
	.byte	-59
	.byte	66
	.byte	-121
	.byte	-119
	.byte	103
	.byte	64
	.byte	7
	.byte	15
	.byte	-123
	.byte	-117
	.byte	65
	.byte	127
	.byte	-126
	.byte	-115
	.byte	71
	.byte	64
	.byte	60
	.byte	47
	.byte	-127
	.byte	65
	.byte	1
	.byte	14
	.byte	-31
	.byte	111
	.byte	45
	.byte	47
	.byte	70
	.byte	-116
	.byte	-112
	.byte	111
	.byte	-122
	.byte	65
	.byte	7
	.byte	64
	.byte	-2
	.byte	14
	.byte	2
	.byte	47
	.byte	4
	.byte	65
	.byte	0
	.byte	-77
	.byte	33
	.byte	47
	.byte	68
	.byte	-126
	.byte	4
	.byte	48
	.byte	65
	.byte	64
	.byte	113
	.byte	0
	.byte	-7
	.byte	14
	.byte	54
	.byte	47
	.byte	70
	.byte	65
	.byte	-128
	.byte	-89
	.byte	1
	.byte	48
	.byte	4
	.byte	48
	.byte	13
	.byte	47
	.byte	-28
	.byte	111
	.byte	0
	.byte	46
	.byte	4
	.byte	65
	.byte	116
	.byte	15
	.byte	4
	.byte	48
	.byte	7
	.byte	47
	.byte	-128
	.byte	-112
	.byte	0
	.byte	47
	.byte	-63
	.byte	66
	.byte	3
	.byte	-122
	.byte	-127
	.byte	-124
	.byte	-62
	.byte	66
	.byte	1
	.byte	66
	.byte	20
	.byte	48
	.byte	66
	.byte	-123
	.byte	65
	.byte	67
	.byte	-95
	.byte	66
	.byte	0
	.byte	46
	.byte	-126
	.byte	64
	.byte	-128
	.byte	-112
	.byte	28
	.byte	47
	.byte	1
	.byte	66
	.byte	27
	.byte	45
	.byte	6
	.byte	66
	.byte	25
	.byte	44
	.byte	4
	.byte	48
	.byte	-78
	.byte	111
	.byte	-70
	.byte	4
	.byte	2
	.byte	30
	.byte	-128
	.byte	67
	.byte	18
	.byte	48
	.byte	-64
	.byte	111
	.byte	35
	.byte	48
	.byte	-104
	.byte	46
	.byte	-112
	.byte	-74
	.byte	14
	.byte	44
	.byte	4
	.byte	48
	.byte	-78
	.byte	111
	.byte	-64
	.byte	111
	.byte	-70
	.byte	0
	.byte	81
	.byte	111
	.byte	1
	.byte	-122
	.byte	74
	.byte	28
	.byte	-63
	.byte	66
	.byte	34
	.byte	48
	.byte	-31
	.byte	111
	.byte	19
	.byte	48
	.byte	-104
	.byte	46
	.byte	-112
	.byte	-74
	.byte	4
	.byte	48
	.byte	82
	.byte	111
	.byte	-51
	.byte	82
	.byte	64
	.byte	111
	.byte	-60
	.byte	127
	.byte	-104
	.byte	46
	.byte	-96
	.byte	-52
	.byte	65
	.byte	111
	.byte	112
	.byte	111
	.byte	66
	.byte	64
	.byte	-49
	.byte	82
	.byte	-104
	.byte	46
	.byte	-96
	.byte	-52
	.byte	65
	.byte	111
	.byte	112
	.byte	111
	.byte	66
	.byte	64
	.byte	1
	.byte	64
	.byte	-45
	.byte	111
	.byte	-45
	.byte	0
	.byte	-53
	.byte	30
	.byte	-49
	.byte	82
	.byte	19
	.byte	66
	.byte	-80
	.byte	127
	.byte	-104
	.byte	46
	.byte	-96
	.byte	-52
	.byte	-80
	.byte	111
	.byte	62
	.byte	-124
	.byte	-47
	.byte	111
	.byte	-126
	.byte	64
	.byte	3
	.byte	64
	.byte	81
	.byte	4
	.byte	89
	.byte	28
	.byte	1
	.byte	66
	.byte	2
	.byte	-126
	.byte	-96
	.byte	111
	.byte	66
	.byte	64
	.byte	3
	.byte	64
	.byte	-45
	.byte	15
	.byte	0
	.byte	48
	.byte	20
	.byte	48
	.byte	96
	.byte	34
	.byte	-59
	.byte	111
	.byte	64
	.byte	-111
	.byte	1
	.byte	47
	.byte	83
	.byte	14
	.byte	38
	.byte	47
	.byte	-27
	.byte	111
	.byte	71
	.byte	-123
	.byte	0
	.byte	46
	.byte	-125
	.byte	64
	.byte	89
	.byte	15
	.byte	32
	.byte	47
	.byte	98
	.byte	111
	.byte	74
	.byte	-113
	.byte	-123
	.byte	64
	.byte	-57
	.byte	65
	.byte	127
	.byte	-115
	.byte	111
	.byte	15
	.byte	-90
	.byte	21
	.byte	23
	.byte	48
	.byte	4
	.byte	48
	.byte	15
	.byte	47
	.byte	-32
	.byte	111
	.byte	11
	.byte	-128
	.byte	0
	.byte	46
	.byte	7
	.byte	64
	.byte	62
	.byte	8
	.byte	0
	.byte	-78
	.byte	0
	.byte	48
	.byte	6
	.byte	47
	.byte	89
	.byte	26
	.byte	4
	.byte	47
	.byte	-3
	.byte	18
	.byte	-64
	.byte	-112
	.byte	19
	.byte	48
	.byte	75
	.byte	34
	.byte	6
	.byte	37
	.byte	113
	.byte	37
	.byte	-64
	.byte	-77
	.byte	4
	.byte	47
	.byte	-92
	.byte	66
	.byte	-92
	.byte	66
	.byte	-125
	.byte	-126
	.byte	-124
	.byte	66
	.byte	68
	.byte	66
	.byte	0
	.byte	46
	.byte	-117
	.byte	111
	.byte	64
	.byte	95
	.byte	-72
	.byte	46
	.byte	64
	.byte	80
	.byte	10
	.byte	37
	.byte	60
	.byte	-128
	.byte	-5
	.byte	127
	.byte	1
	.byte	66
	.byte	-46
	.byte	127
	.byte	-29
	.byte	127
	.byte	50
	.byte	48
	.byte	16
	.byte	37
	.byte	-104
	.byte	46
	.byte	122
	.byte	-63
	.byte	-5
	.byte	111
	.byte	-64
	.byte	95
	.byte	-72
	.byte	46
	.byte	112
	.byte	80
	.byte	10
	.byte	37
	.byte	57
	.byte	-128
	.byte	-13
	.byte	127
	.byte	3
	.byte	66
	.byte	-95
	.byte	127
	.byte	-62
	.byte	127
	.byte	-47
	.byte	127
	.byte	3
	.byte	48
	.byte	3
	.byte	67
	.byte	-28
	.byte	127
	.byte	-69
	.byte	127
	.byte	34
	.byte	48
	.byte	16
	.byte	37
	.byte	-104
	.byte	46
	.byte	122
	.byte	-63
	.byte	-46
	.byte	111
	.byte	2
	.byte	23
	.byte	4
	.byte	8
	.byte	-63
	.byte	111
	.byte	12
	.byte	9
	.byte	4
	.byte	26
	.byte	16
	.byte	48
	.byte	4
	.byte	48
	.byte	32
	.byte	34
	.byte	1
	.byte	-78
	.byte	20
	.byte	47
	.byte	-47
	.byte	88
	.byte	20
	.byte	9
	.byte	-13
	.byte	48
	.byte	-109
	.byte	8
	.byte	36
	.byte	-67
	.byte	68
	.byte	-70
	.byte	-108
	.byte	10
	.byte	2
	.byte	23
	.byte	-13
	.byte	111
	.byte	76
	.byte	8
	.byte	-102
	.byte	8
	.byte	-118
	.byte	10
	.byte	-99
	.byte	82
	.byte	81
	.byte	8
	.byte	65
	.byte	88
	.byte	-108
	.byte	8
	.byte	40
	.byte	-67
	.byte	-104
	.byte	-72
	.byte	-28
	.byte	111
	.byte	81
	.byte	10
	.byte	1
	.byte	67
	.byte	0
	.byte	46
	.byte	-69
	.byte	111
	.byte	-112
	.byte	95
	.byte	-72
	.byte	46
	.byte	-128
	.byte	46
	.byte	0
	.byte	-63
	.byte	-128
	.byte	46
	.byte	0
	.byte	-63
	.byte	-128
	.byte	46
	.byte	0
	.byte	-63
	.byte	-128
	.byte	46
	.byte	0
	.byte	-63
	.byte	-128
	.byte	46
	.byte	0
	.byte	-63
	.byte	-128
	.byte	46
	.byte	0
	.byte	-63
	.byte	-128
	.byte	46
	.byte	0
	.byte	-63
	.byte	-128
	.byte	46
	.byte	0
	.byte	-63
	.byte	-128
	.byte	46
	.byte	0
	.byte	-63
	.byte	-128
	.byte	46
	.byte	0
	.byte	-63
	.byte	-128
	.byte	46
	.byte	0
	.byte	-63
	.byte	-128
	.byte	46
	.byte	0
	.byte	-63
	.byte	-128
	.byte	46
	.byte	0
	.byte	-63
	.byte	-128
	.byte	46
	.byte	0
	.byte	-63
	.byte	-128
	.byte	46
	.byte	0
	.byte	-63
	.byte	1
	.byte	46
	.byte	93
	.byte	-9
	.byte	8
	.byte	-68
	.byte	-128
	.byte	-84
	.byte	14
	.byte	-69
	.byte	2
	.byte	47
	.byte	0
	.byte	48
	.byte	65
	.byte	4
	.byte	-126
	.byte	6
	.byte	-64
	.byte	-92
	.byte	0
	.byte	48
	.byte	17
	.byte	47
	.byte	64
	.byte	-87
	.byte	3
	.byte	47
	.byte	64
	.byte	-111
	.byte	13
	.byte	47
	.byte	0
	.byte	-89
	.byte	11
	.byte	47
	.byte	-128
	.byte	-77
	.byte	111
	.byte	88
	.byte	2
	.byte	47
	.byte	-112
	.byte	-95
	.byte	38
	.byte	19
	.byte	32
	.byte	35
	.byte	-128
	.byte	-112
	.byte	16
	.byte	48
	.byte	1
	.byte	47
	.byte	-52
	.byte	14
	.byte	0
	.byte	47
	.byte	0
	.byte	48
	.byte	-72
	.byte	46
	.byte	119
	.byte	86
	.byte	113
	.byte	84
	.byte	-48
	.byte	64
	.byte	-60
	.byte	64
	.byte	11
	.byte	46
	.byte	-3
	.byte	-13
	.byte	119
	.byte	82
	.byte	-112
	.byte	66
	.byte	-108
	.byte	66
	.byte	-107
	.byte	66
	.byte	5
	.byte	48
	.byte	121
	.byte	80
	.byte	15
	.byte	-120
	.byte	6
	.byte	64
	.byte	4
	.byte	65
	.byte	-106
	.byte	66
	.byte	-59
	.byte	66
	.byte	72
	.byte	-66
	.byte	115
	.byte	48
	.byte	13
	.byte	46
	.byte	111
	.byte	1
	.byte	79
	.byte	-70
	.byte	-124
	.byte	66
	.byte	3
	.byte	66
	.byte	-127
	.byte	-77
	.byte	2
	.byte	47
	.byte	43
	.byte	46
	.byte	111
	.byte	-11
	.byte	6
	.byte	45
	.byte	5
	.byte	46
	.byte	119
	.byte	-9
	.byte	117
	.byte	86
	.byte	-109
	.byte	8
	.byte	37
	.byte	46
	.byte	119
	.byte	-9
	.byte	115
	.byte	84
	.byte	37
	.byte	46
	.byte	-62
	.byte	-11
	.byte	7
	.byte	46
	.byte	-3
	.byte	-13
	.byte	66
	.byte	48
	.byte	-76
	.byte	51
	.byte	-38
	.byte	10
	.byte	76
	.byte	0
	.byte	39
	.byte	46
	.byte	-3
	.byte	-13
	.byte	67
	.byte	64
	.byte	-44
	.byte	63
	.byte	-36
	.byte	8
	.byte	67
	.byte	66
	.byte	0
	.byte	46
	.byte	0
	.byte	46
	.byte	67
	.byte	64
	.byte	36
	.byte	48
	.byte	-36
	.byte	10
	.byte	67
	.byte	66
	.byte	4
	.byte	-128
	.byte	3
	.byte	46
	.byte	-3
	.byte	-13
	.byte	74
	.byte	10
	.byte	35
	.byte	46
	.byte	-3
	.byte	-13
	.byte	97
	.byte	52
	.byte	-64
	.byte	46
	.byte	1
	.byte	66
	.byte	0
	.byte	46
	.byte	-48
	.byte	81
	.byte	-5
	.byte	127
	.byte	-104
	.byte	46
	.byte	-49
	.byte	13
	.byte	90
	.byte	37
	.byte	-104
	.byte	46
	.byte	-10
	.byte	13
	.byte	107
	.byte	-121
	.byte	-127
	.byte	84
	.byte	-31
	.byte	127
	.byte	-93
	.byte	127
	.byte	-77
	.byte	127
	.byte	-78
	.byte	-120
	.byte	123
	.byte	82
	.byte	-62
	.byte	127
	.byte	101
	.byte	-117
	.byte	125
	.byte	86
	.byte	-124
	.byte	127
	.byte	97
	.byte	127
	.byte	117
	.byte	127
	.byte	-48
	.byte	127
	.byte	-107
	.byte	127
	.byte	83
	.byte	127
	.byte	20
	.byte	48
	.byte	127
	.byte	84
	.byte	-127
	.byte	111
	.byte	66
	.byte	127
	.byte	0
	.byte	46
	.byte	83
	.byte	64
	.byte	69
	.byte	-116
	.byte	66
	.byte	64
	.byte	-112
	.byte	65
	.byte	-69
	.byte	-125
	.byte	-122
	.byte	65
	.byte	-40
	.byte	4
	.byte	22
	.byte	6
	.byte	0
	.byte	-84
	.byte	-127
	.byte	127
	.byte	2
	.byte	47
	.byte	2
	.byte	48
	.byte	-45
	.byte	4
	.byte	16
	.byte	6
	.byte	-63
	.byte	-124
	.byte	1
	.byte	48
	.byte	-63
	.byte	2
	.byte	11
	.byte	22
	.byte	4
	.byte	9
	.byte	20
	.byte	1
	.byte	-103
	.byte	2
	.byte	-63
	.byte	-71
	.byte	-81
	.byte	-68
	.byte	89
	.byte	10
	.byte	100
	.byte	111
	.byte	81
	.byte	67
	.byte	-95
	.byte	-76
	.byte	18
	.byte	65
	.byte	19
	.byte	65
	.byte	65
	.byte	67
	.byte	53
	.byte	127
	.byte	100
	.byte	127
	.byte	38
	.byte	49
	.byte	-27
	.byte	111
	.byte	-44
	.byte	111
	.byte	-104
	.byte	46
	.byte	55
	.byte	-54
	.byte	50
	.byte	111
	.byte	117
	.byte	111
	.byte	-125
	.byte	64
	.byte	66
	.byte	65
	.byte	35
	.byte	127
	.byte	18
	.byte	127
	.byte	-10
	.byte	48
	.byte	64
	.byte	37
	.byte	81
	.byte	37
	.byte	-104
	.byte	46
	.byte	55
	.byte	-54
	.byte	20
	.byte	111
	.byte	32
	.byte	5
	.byte	112
	.byte	111
	.byte	37
	.byte	111
	.byte	105
	.byte	7
	.byte	-94
	.byte	111
	.byte	49
	.byte	111
	.byte	11
	.byte	48
	.byte	4
	.byte	66
	.byte	-101
	.byte	66
	.byte	-117
	.byte	66
	.byte	85
	.byte	66
	.byte	50
	.byte	127
	.byte	64
	.byte	-87
	.byte	-61
	.byte	111
	.byte	113
	.byte	127
	.byte	2
	.byte	48
	.byte	-48
	.byte	64
	.byte	-61
	.byte	127
	.byte	3
	.byte	47
	.byte	64
	.byte	-111
	.byte	21
	.byte	47
	.byte	0
	.byte	-89
	.byte	19
	.byte	47
	.byte	0
	.byte	-92
	.byte	17
	.byte	47
	.byte	-124
	.byte	-67
	.byte	-104
	.byte	46
	.byte	121
	.byte	-54
	.byte	85
	.byte	111
	.byte	-119
	.byte	84
	.byte	84
	.byte	65
	.byte	-126
	.byte	0
	.byte	-13
	.byte	63
	.byte	69
	.byte	65
	.byte	-53
	.byte	2
	.byte	-10
	.byte	48
	.byte	-104
	.byte	46
	.byte	55
	.byte	-54
	.byte	51
	.byte	111
	.byte	-92
	.byte	111
	.byte	-63
	.byte	66
	.byte	3
	.byte	44
	.byte	0
	.byte	67
	.byte	-92
	.byte	111
	.byte	51
	.byte	111
	.byte	0
	.byte	46
	.byte	66
	.byte	111
	.byte	85
	.byte	111
	.byte	-111
	.byte	64
	.byte	66
	.byte	-117
	.byte	0
	.byte	65
	.byte	65
	.byte	0
	.byte	1
	.byte	67
	.byte	85
	.byte	127
	.byte	20
	.byte	48
	.byte	-63
	.byte	64
	.byte	-107
	.byte	64
	.byte	77
	.byte	2
	.byte	-59
	.byte	111
	.byte	-121
	.byte	80
	.byte	104
	.byte	14
	.byte	117
	.byte	111
	.byte	-47
	.byte	66
	.byte	-93
	.byte	127
	.byte	-118
	.byte	47
	.byte	9
	.byte	46
	.byte	111
	.byte	1
	.byte	1
	.byte	-77
	.byte	34
	.byte	47
	.byte	-127
	.byte	88
	.byte	-112
	.byte	111
	.byte	23
	.byte	48
	.byte	19
	.byte	65
	.byte	-74
	.byte	111
	.byte	-28
	.byte	127
	.byte	0
	.byte	46
	.byte	-111
	.byte	65
	.byte	20
	.byte	64
	.byte	-110
	.byte	65
	.byte	21
	.byte	64
	.byte	23
	.byte	46
	.byte	111
	.byte	-11
	.byte	-74
	.byte	127
	.byte	-48
	.byte	127
	.byte	-53
	.byte	127
	.byte	-104
	.byte	46
	.byte	0
	.byte	12
	.byte	7
	.byte	21
	.byte	-62
	.byte	111
	.byte	20
	.byte	11
	.byte	41
	.byte	46
	.byte	111
	.byte	-11
	.byte	-61
	.byte	-93
	.byte	-63
	.byte	-113
	.byte	-28
	.byte	111
	.byte	-48
	.byte	111
	.byte	-26
	.byte	47
	.byte	20
	.byte	48
	.byte	5
	.byte	46
	.byte	111
	.byte	-11
	.byte	20
	.byte	11
	.byte	41
	.byte	46
	.byte	111
	.byte	-11
	.byte	68
	.byte	45
	.byte	-125
	.byte	84
	.byte	1
	.byte	50
	.byte	-119
	.byte	88
	.byte	5
	.byte	48
	.byte	65
	.byte	80
	.byte	-125
	.byte	64
	.byte	-40
	.byte	8
	.byte	-111
	.byte	1
	.byte	-72
	.byte	-67
	.byte	56
	.byte	-75
	.byte	-26
	.byte	127
	.byte	10
	.byte	22
	.byte	-79
	.byte	111
	.byte	42
	.byte	-69
	.byte	-90
	.byte	-67
	.byte	28
	.byte	1
	.byte	6
	.byte	-68
	.byte	82
	.byte	64
	.byte	6
	.byte	10
	.byte	83
	.byte	64
	.byte	69
	.byte	3
	.byte	-79
	.byte	127
	.byte	-10
	.byte	48
	.byte	-104
	.byte	46
	.byte	55
	.byte	-54
	.byte	26
	.byte	-67
	.byte	22
	.byte	-74
	.byte	-122
	.byte	-70
	.byte	0
	.byte	-87
	.byte	-86
	.byte	10
	.byte	103
	.byte	82
	.byte	15
	.byte	47
	.byte	0
	.byte	-111
	.byte	103
	.byte	82
	.byte	3
	.byte	47
	.byte	103
	.byte	90
	.byte	85
	.byte	15
	.byte	103
	.byte	82
	.byte	8
	.byte	47
	.byte	63
	.byte	-95
	.byte	4
	.byte	47
	.byte	63
	.byte	-111
	.byte	3
	.byte	47
	.byte	-119
	.byte	88
	.byte	-44
	.byte	15
	.byte	0
	.byte	47
	.byte	-119
	.byte	84
	.byte	18
	.byte	37
	.byte	-14
	.byte	51
	.byte	-104
	.byte	46
	.byte	-39
	.byte	-64
	.byte	-28
	.byte	111
	.byte	-11
	.byte	55
	.byte	69
	.byte	9
	.byte	33
	.byte	-123
	.byte	5
	.byte	67
	.byte	5
	.byte	48
	.byte	-123
	.byte	82
	.byte	81
	.byte	14
	.byte	1
	.byte	50
	.byte	-119
	.byte	88
	.byte	-59
	.byte	47
	.byte	37
	.byte	84
	.byte	9
	.byte	46
	.byte	119
	.byte	-9
	.byte	34
	.byte	11
	.byte	41
	.byte	46
	.byte	119
	.byte	-9
	.byte	-5
	.byte	111
	.byte	48
	.byte	94
	.byte	-72
	.byte	46
	.byte	16
	.byte	80
	.byte	1
	.byte	46
	.byte	107
	.byte	1
	.byte	0
	.byte	-78
	.byte	-5
	.byte	127
	.byte	93
	.byte	47
	.byte	1
	.byte	-78
	.byte	84
	.byte	47
	.byte	2
	.byte	-78
	.byte	78
	.byte	47
	.byte	3
	.byte	-112
	.byte	99
	.byte	47
	.byte	-113
	.byte	80
	.byte	57
	.byte	-126
	.byte	2
	.byte	64
	.byte	-127
	.byte	-120
	.byte	-111
	.byte	84
	.byte	65
	.byte	64
	.byte	-105
	.byte	86
	.byte	4
	.byte	66
	.byte	0
	.byte	46
	.byte	-108
	.byte	64
	.byte	-107
	.byte	64
	.byte	-40
	.byte	-66
	.byte	44
	.byte	11
	.byte	69
	.byte	64
	.byte	108
	.byte	1
	.byte	85
	.byte	66
	.byte	12
	.byte	23
	.byte	69
	.byte	64
	.byte	44
	.byte	3
	.byte	84
	.byte	66
	.byte	83
	.byte	14
	.byte	-14
	.byte	47
	.byte	-103
	.byte	86
	.byte	62
	.byte	-126
	.byte	-30
	.byte	64
	.byte	-61
	.byte	64
	.byte	40
	.byte	-67
	.byte	-109
	.byte	10
	.byte	67
	.byte	64
	.byte	-38
	.byte	0
	.byte	83
	.byte	66
	.byte	-118
	.byte	22
	.byte	67
	.byte	64
	.byte	-102
	.byte	2
	.byte	82
	.byte	66
	.byte	0
	.byte	46
	.byte	65
	.byte	64
	.byte	37
	.byte	84
	.byte	74
	.byte	14
	.byte	59
	.byte	47
	.byte	58
	.byte	-126
	.byte	0
	.byte	48
	.byte	65
	.byte	64
	.byte	33
	.byte	46
	.byte	119
	.byte	15
	.byte	64
	.byte	-78
	.byte	10
	.byte	47
	.byte	-104
	.byte	46
	.byte	97
	.byte	12
	.byte	-104
	.byte	46
	.byte	43
	.byte	14
	.byte	-104
	.byte	46
	.byte	65
	.byte	14
	.byte	-5
	.byte	111
	.byte	-16
	.byte	95
	.byte	0
	.byte	48
	.byte	-128
	.byte	46
	.byte	56
	.byte	-74
	.byte	-107
	.byte	84
	.byte	-117
	.byte	86
	.byte	-125
	.byte	66
	.byte	-113
	.byte	-122
	.byte	116
	.byte	48
	.byte	-109
	.byte	84
	.byte	-60
	.byte	66
	.byte	17
	.byte	48
	.byte	35
	.byte	46
	.byte	107
	.byte	1
	.byte	-95
	.byte	66
	.byte	35
	.byte	48
	.byte	39
	.byte	46
	.byte	110
	.byte	1
	.byte	33
	.byte	46
	.byte	109
	.byte	1
	.byte	-70
	.byte	-126
	.byte	24
	.byte	44
	.byte	-127
	.byte	66
	.byte	48
	.byte	48
	.byte	33
	.byte	46
	.byte	107
	.byte	1
	.byte	19
	.byte	45
	.byte	33
	.byte	48
	.byte	0
	.byte	48
	.byte	35
	.byte	46
	.byte	107
	.byte	1
	.byte	33
	.byte	46
	.byte	123
	.byte	-9
	.byte	12
	.byte	45
	.byte	119
	.byte	48
	.byte	-104
	.byte	46
	.byte	31
	.byte	12
	.byte	-115
	.byte	80
	.byte	12
	.byte	-126
	.byte	18
	.byte	48
	.byte	64
	.byte	66
	.byte	37
	.byte	46
	.byte	107
	.byte	1
	.byte	47
	.byte	46
	.byte	123
	.byte	-9
	.byte	-5
	.byte	111
	.byte	-16
	.byte	95
	.byte	-72
	.byte	46
	.byte	112
	.byte	80
	.byte	10
	.byte	37
	.byte	57
	.byte	-122
	.byte	-5
	.byte	127
	.byte	-31
	.byte	50
	.byte	98
	.byte	48
	.byte	-104
	.byte	46
	.byte	-62
	.byte	-60
	.byte	65
	.byte	86
	.byte	-91
	.byte	111
	.byte	-85
	.byte	8
	.byte	-111
	.byte	111
	.byte	75
	.byte	8
	.byte	-101
	.byte	86
	.byte	-60
	.byte	111
	.byte	35
	.byte	9
	.byte	77
	.byte	-70
	.byte	-109
	.byte	-68
	.byte	-116
	.byte	11
	.byte	-47
	.byte	111
	.byte	11
	.byte	9
	.byte	-127
	.byte	82
	.byte	-99
	.byte	94
	.byte	86
	.byte	66
	.byte	-81
	.byte	9
	.byte	77
	.byte	-70
	.byte	35
	.byte	-67
	.byte	-108
	.byte	10
	.byte	-27
	.byte	111
	.byte	104
	.byte	-69
	.byte	-21
	.byte	8
	.byte	-67
	.byte	-71
	.byte	99
	.byte	-66
	.byte	-5
	.byte	111
	.byte	82
	.byte	66
	.byte	-29
	.byte	10
	.byte	-64
	.byte	46
	.byte	67
	.byte	66
	.byte	-112
	.byte	95
	.byte	-121
	.byte	80
	.byte	3
	.byte	46
	.byte	37
	.byte	-13
	.byte	18
	.byte	64
	.byte	0
	.byte	64
	.byte	40
	.byte	-70
	.byte	-101
	.byte	-68
	.byte	-120
	.byte	-67
	.byte	-109
	.byte	-76
	.byte	-29
	.byte	10
	.byte	-119
	.byte	22
	.byte	8
	.byte	-74
	.byte	-64
	.byte	46
	.byte	25
	.byte	0
	.byte	98
	.byte	2
	.byte	16
	.byte	80
	.byte	-5
	.byte	127
	.byte	-104
	.byte	46
	.byte	93
	.byte	13
	.byte	1
	.byte	46
	.byte	107
	.byte	1
	.byte	49
	.byte	48
	.byte	8
	.byte	4
	.byte	-5
	.byte	111
	.byte	1
	.byte	48
	.byte	-16
	.byte	95
	.byte	35
	.byte	46
	.byte	109
	.byte	1
	.byte	33
	.byte	46
	.byte	110
	.byte	1
	.byte	-72
	.byte	46
	.byte	1
	.byte	46
	.byte	110
	.byte	1
	.byte	3
	.byte	46
	.byte	109
	.byte	1
	.byte	72
	.byte	14
	.byte	1
	.byte	47
	.byte	-128
	.byte	46
	.byte	5
	.byte	14
	.byte	-72
	.byte	46
	.byte	-97
	.byte	80
	.byte	33
	.byte	52
	.byte	1
	.byte	66
	.byte	-126
	.byte	48
	.byte	-63
	.byte	50
	.byte	37
	.byte	46
	.byte	98
	.byte	-11
	.byte	1
	.byte	0
	.byte	34
	.byte	48
	.byte	1
	.byte	64
	.byte	74
	.byte	10
	.byte	1
	.byte	66
	.byte	-72
	.byte	46
	.byte	-97
	.byte	84
	.byte	-16
	.byte	59
	.byte	-125
	.byte	64
	.byte	-40
	.byte	8
	.byte	-95
	.byte	82
	.byte	-125
	.byte	66
	.byte	0
	.byte	48
	.byte	-125
	.byte	48
	.byte	80
	.byte	66
	.byte	-60
	.byte	50
	.byte	39
	.byte	46
	.byte	100
	.byte	-11
	.byte	-108
	.byte	0
	.byte	80
	.byte	66
	.byte	64
	.byte	66
	.byte	-45
	.byte	63
	.byte	-124
	.byte	64
	.byte	125
	.byte	-126
	.byte	-29
	.byte	8
	.byte	64
	.byte	66
	.byte	-125
	.byte	66
	.byte	-72
	.byte	46
	.byte	-107
	.byte	82
	.byte	0
	.byte	48
	.byte	64
	.byte	66
	.byte	124
	.byte	-122
	.byte	113
	.byte	82
	.byte	9
	.byte	46
	.byte	98
	.byte	15
	.byte	119
	.byte	84
	.byte	-60
	.byte	66
	.byte	-45
	.byte	-122
	.byte	84
	.byte	64
	.byte	85
	.byte	64
	.byte	-108
	.byte	66
	.byte	-123
	.byte	66
	.byte	33
	.byte	46
	.byte	110
	.byte	1
	.byte	66
	.byte	64
	.byte	37
	.byte	46
	.byte	-3
	.byte	-13
	.byte	-64
	.byte	66
	.byte	126
	.byte	-126
	.byte	5
	.byte	46
	.byte	-41
	.byte	0
	.byte	-128
	.byte	-78
	.byte	20
	.byte	47
	.byte	5
	.byte	46
	.byte	-119
	.byte	0
	.byte	39
	.byte	-67
	.byte	47
	.byte	-71
	.byte	-128
	.byte	-112
	.byte	2
	.byte	47
	.byte	33
	.byte	46
	.byte	111
	.byte	-11
	.byte	12
	.byte	45
	.byte	7
	.byte	46
	.byte	99
	.byte	15
	.byte	20
	.byte	48
	.byte	28
	.byte	9
	.byte	5
	.byte	46
	.byte	119
	.byte	-9
	.byte	117
	.byte	86
	.byte	71
	.byte	-66
	.byte	-109
	.byte	8
	.byte	-108
	.byte	10
	.byte	37
	.byte	46
	.byte	119
	.byte	-9
	.byte	-93
	.byte	84
	.byte	80
	.byte	66
	.byte	74
	.byte	14
	.byte	-4
	.byte	47
	.byte	-72
	.byte	46
	.byte	80
	.byte	80
	.byte	2
	.byte	48
	.byte	67
	.byte	-122
	.byte	-95
	.byte	80
	.byte	-5
	.byte	127
	.byte	-29
	.byte	127
	.byte	-46
	.byte	127
	.byte	-64
	.byte	127
	.byte	-79
	.byte	127
	.byte	0
	.byte	46
	.byte	65
	.byte	64
	.byte	0
	.byte	64
	.byte	72
	.byte	4
	.byte	-104
	.byte	46
	.byte	116
	.byte	-64
	.byte	30
	.byte	-86
	.byte	-45
	.byte	111
	.byte	20
	.byte	48
	.byte	-79
	.byte	111
	.byte	-29
	.byte	34
	.byte	-64
	.byte	111
	.byte	82
	.byte	64
	.byte	-28
	.byte	111
	.byte	76
	.byte	14
	.byte	18
	.byte	66
	.byte	-45
	.byte	127
	.byte	-21
	.byte	47
	.byte	3
	.byte	46
	.byte	120
	.byte	15
	.byte	64
	.byte	-112
	.byte	17
	.byte	48
	.byte	3
	.byte	47
	.byte	35
	.byte	46
	.byte	120
	.byte	15
	.byte	2
	.byte	44
	.byte	0
	.byte	48
	.byte	-48
	.byte	111
	.byte	-5
	.byte	111
	.byte	-80
	.byte	95
	.byte	-72
	.byte	46
	.byte	64
	.byte	80
	.byte	-15
	.byte	127
	.byte	10
	.byte	37
	.byte	60
	.byte	-122
	.byte	-21
	.byte	127
	.byte	65
	.byte	51
	.byte	34
	.byte	48
	.byte	-104
	.byte	46
	.byte	-62
	.byte	-60
	.byte	-45
	.byte	111
	.byte	-12
	.byte	48
	.byte	-36
	.byte	9
	.byte	-89
	.byte	88
	.byte	-62
	.byte	111
	.byte	-108
	.byte	9
	.byte	-87
	.byte	88
	.byte	106
	.byte	-69
	.byte	-36
	.byte	8
	.byte	-76
	.byte	-71
	.byte	-79
	.byte	-67
	.byte	-91
	.byte	90
	.byte	-107
	.byte	8
	.byte	33
	.byte	-67
	.byte	-10
	.byte	-65
	.byte	119
	.byte	11
	.byte	81
	.byte	-66
	.byte	-15
	.byte	111
	.byte	-21
	.byte	111
	.byte	82
	.byte	66
	.byte	84
	.byte	66
	.byte	-64
	.byte	46
	.byte	67
	.byte	66
	.byte	-64
	.byte	95
	.byte	80
	.byte	80
	.byte	-69
	.byte	80
	.byte	49
	.byte	48
	.byte	17
	.byte	66
	.byte	-5
	.byte	127
	.byte	123
	.byte	48
	.byte	11
	.byte	66
	.byte	17
	.byte	48
	.byte	2
	.byte	-128
	.byte	35
	.byte	51
	.byte	1
	.byte	66
	.byte	3
	.byte	0
	.byte	7
	.byte	46
	.byte	-128
	.byte	3
	.byte	5
	.byte	46
	.byte	-43
	.byte	0
	.byte	51
	.byte	82
	.byte	-30
	.byte	127
	.byte	-45
	.byte	127
	.byte	-64
	.byte	127
	.byte	-104
	.byte	46
	.byte	-100
	.byte	14
	.byte	-47
	.byte	111
	.byte	8
	.byte	10
	.byte	26
	.byte	37
	.byte	123
	.byte	-122
	.byte	-48
	.byte	127
	.byte	1
	.byte	51
	.byte	18
	.byte	48
	.byte	-104
	.byte	46
	.byte	-62
	.byte	-60
	.byte	-47
	.byte	111
	.byte	8
	.byte	10
	.byte	0
	.byte	-78
	.byte	13
	.byte	47
	.byte	-29
	.byte	111
	.byte	1
	.byte	46
	.byte	-128
	.byte	3
	.byte	81
	.byte	48
	.byte	-57
	.byte	-122
	.byte	35
	.byte	46
	.byte	33
	.byte	-14
	.byte	8
	.byte	-68
	.byte	-64
	.byte	66
	.byte	-104
	.byte	46
	.byte	-111
	.byte	3
	.byte	0
	.byte	46
	.byte	0
	.byte	46
	.byte	-48
	.byte	46
	.byte	-80
	.byte	111
	.byte	11
	.byte	-72
	.byte	3
	.byte	46
	.byte	27
	.byte	0
	.byte	8
	.byte	26
	.byte	-80
	.byte	127
	.byte	112
	.byte	48
	.byte	4
	.byte	47
	.byte	33
	.byte	46
	.byte	33
	.byte	-14
	.byte	0
	.byte	46
	.byte	0
	.byte	46
	.byte	-48
	.byte	46
	.byte	-104
	.byte	46
	.byte	109
	.byte	-64
	.byte	-104
	.byte	46
	.byte	93
	.byte	-64
	.byte	-85
	.byte	80
	.byte	-104
	.byte	46
	.byte	70
	.byte	-61
	.byte	-83
	.byte	80
	.byte	-104
	.byte	46
	.byte	-4
	.byte	-59
	.byte	93
	.byte	80
	.byte	-104
	.byte	46
	.byte	100
	.byte	-49
	.byte	-79
	.byte	80
	.byte	33
	.byte	46
	.byte	126
	.byte	1
	.byte	-81
	.byte	86
	.byte	-77
	.byte	82
	.byte	39
	.byte	46
	.byte	127
	.byte	1
	.byte	35
	.byte	46
	.byte	-128
	.byte	1
	.byte	-75
	.byte	80
	.byte	-104
	.byte	46
	.byte	83
	.byte	-57
	.byte	-73
	.byte	80
	.byte	-104
	.byte	46
	.byte	68
	.byte	-53
	.byte	16
	.byte	48
	.byte	-104
	.byte	46
	.byte	13
	.byte	-74
	.byte	32
	.byte	38
	.byte	-64
	.byte	111
	.byte	2
	.byte	49
	.byte	18
	.byte	66
	.byte	-21
	.byte	51
	.byte	11
	.byte	66
	.byte	55
	.byte	-128
	.byte	1
	.byte	48
	.byte	1
	.byte	66
	.byte	-13
	.byte	55
	.byte	-67
	.byte	82
	.byte	-63
	.byte	80
	.byte	68
	.byte	64
	.byte	-94
	.byte	10
	.byte	66
	.byte	66
	.byte	-117
	.byte	49
	.byte	9
	.byte	46
	.byte	94
	.byte	-9
	.byte	-65
	.byte	84
	.byte	-29
	.byte	8
	.byte	-125
	.byte	66
	.byte	27
	.byte	66
	.byte	35
	.byte	51
	.byte	75
	.byte	0
	.byte	-68
	.byte	-124
	.byte	11
	.byte	64
	.byte	51
	.byte	48
	.byte	-125
	.byte	66
	.byte	11
	.byte	66
	.byte	-32
	.byte	127
	.byte	-47
	.byte	127
	.byte	-104
	.byte	46
	.byte	12
	.byte	2
	.byte	-47
	.byte	111
	.byte	-128
	.byte	48
	.byte	64
	.byte	66
	.byte	3
	.byte	48
	.byte	-32
	.byte	111
	.byte	-71
	.byte	84
	.byte	4
	.byte	48
	.byte	0
	.byte	46
	.byte	0
	.byte	46
	.byte	1
	.byte	-119
	.byte	98
	.byte	14
	.byte	-6
	.byte	47
	.byte	67
	.byte	66
	.byte	17
	.byte	48
	.byte	-5
	.byte	111
	.byte	-64
	.byte	46
	.byte	1
	.byte	66
	.byte	-80
	.byte	95
	.byte	-63
	.byte	74
	.byte	0
	.byte	0
	.byte	109
	.byte	87
	.byte	0
	.byte	0
	.byte	119
	.byte	-114
	.byte	0
	.byte	0
	.byte	-32
	.byte	-1
	.byte	-1
	.byte	-1
	.byte	-45
	.byte	-1
	.byte	-1
	.byte	-1
	.byte	-27
	.byte	-1
	.byte	-1
	.byte	-1
	.byte	-18
	.byte	-31
	.byte	-1
	.byte	-1
	.byte	124
	.byte	19
	.byte	0
	.byte	0
	.byte	70
	.byte	-26
	.byte	-1
	.byte	-1
	.byte	0
	.byte	0
	.byte	0
	.byte	0
	.byte	0
	.byte	0
	.byte	0
	.byte	0
	.byte	0
	.byte	0
	.byte	0
	.byte	0
	.byte	0
	.byte	0
	.byte	0
	.byte	0
	.byte	0
	.byte	0
	.byte	0
	.byte	0
	.byte	0
	.byte	0
	.byte	0
	.byte	0
	.byte	0
	.byte	0
	.byte	0
	.byte	0
	.byte	0
	.byte	0
	.byte	0
	.byte	0
	.byte	0
	.byte	0
	.byte	0
	.byte	0
	.byte	0
	.byte	0
	.byte	0
	.byte	0
	.byte	0
	.byte	0
	.byte	0
	.byte	0
	.byte	0
	.byte	0
	.byte	0
	.byte	0
	.byte	0
	.byte	0
	.byte	0
	.byte	0
	.byte	0
	.byte	0
	.byte	0
	.byte	0
	.byte	0
	.byte	0
	.byte	-128
	.byte	46
	.byte	0
	.byte	-63
	.byte	-128
	.byte	46
	.byte	0
	.byte	-63
	.byte	-128
	.byte	46
	.byte	0
	.byte	-63
	.byte	-128
	.byte	46
	.byte	0
	.byte	-63
	.byte	-128
	.byte	46
	.byte	0
	.byte	-63
	.byte	-128
	.byte	46
	.byte	0
	.byte	-63
	.byte	-128
	.byte	46
	.byte	0
	.byte	-63
	.byte	-128
	.byte	46
	.byte	0
	.byte	-63
	.byte	-128
	.byte	46
	.byte	0
	.byte	-63
	.byte	-128
	.byte	46
	.byte	0
	.byte	-63
	.byte	-128
	.byte	46
	.byte	0
	.byte	-63
	.byte	-128
	.byte	46
	.byte	0
	.byte	-63
	.byte	-128
	.byte	46
	.byte	0
	.byte	-63
	.byte	-128
	.byte	46
	.byte	0
	.byte	-63
	.byte	-128
	.byte	46
	.byte	0
	.byte	-63
	.byte	-128
	.byte	46
	.byte	0
	.byte	-63
	.byte	-128
	.byte	46
	.byte	0
	.byte	-63
	.byte	-128
	.byte	46
	.byte	0
	.byte	-63
	.byte	-128
	.byte	46
	.byte	0
	.byte	-63
	.byte	-128
	.byte	46
	.byte	0
	.byte	-63
	.byte	-128
	.byte	46
	.byte	0
	.byte	-63
	.byte	-128
	.byte	46
	.byte	0
	.byte	-63
	.byte	-128
	.byte	46
	.byte	0
	.byte	-63
	.byte	-128
	.byte	46
	.byte	0
	.byte	-63
	.byte	-128
	.byte	46
	.byte	0
	.byte	-63
	.byte	-128
	.byte	46
	.byte	0
	.byte	-63
	.byte	-128
	.byte	46
	.byte	0
	.byte	-63
	.byte	-128
	.byte	46
	.byte	0
	.byte	-63
	.byte	-128
	.byte	46
	.byte	0
	.byte	-63
	.byte	-128
	.byte	46
	.byte	0
	.byte	-63
	.byte	-128
	.byte	46
	.byte	0
	.byte	-63
	.byte	-128
	.byte	46
	.byte	0
	.byte	-63
	.byte	-128
	.byte	46
	.byte	0
	.byte	-63
	.byte	-128
	.byte	46
	.byte	0
	.byte	-63
	.byte	-128
	.byte	46
	.byte	0
	.byte	-63
	.byte	-128
	.byte	46
	.byte	0
	.byte	-63
	.byte	-128
	.byte	46
	.byte	0
	.byte	-63
	.byte	-128
	.byte	46
	.byte	0
	.byte	-63
	.byte	-128
	.byte	46
	.byte	0
	.byte	-63
	.byte	-128
	.byte	46
	.byte	0
	.byte	-63
	.byte	-128
	.byte	46
	.byte	0
	.byte	-63
	.byte	-128
	.byte	46
	.byte	0
	.byte	-63
	.byte	-128
	.byte	46
	.byte	0
	.byte	-63
	.byte	-128
	.byte	46
	.byte	0
	.byte	-63
	.byte	-128
	.byte	46
	.byte	0
	.byte	-63
	.byte	-128
	.byte	46
	.byte	0
	.byte	-63
	.byte	-128
	.byte	46
	.byte	0
	.byte	-63
	.byte	-128
	.byte	46
	.byte	0
	.byte	-63
	.byte	-128
	.byte	46
	.byte	0
	.byte	-63
	.byte	-128
	.byte	46
	.byte	0
	.byte	-63
	.byte	-128
	.byte	46
	.byte	0
	.byte	-63
	.byte	-128
	.byte	46
	.byte	0
	.byte	-63
	.byte	-128
	.byte	46
	.byte	0
	.byte	-63
	.byte	-128
	.byte	46
	.byte	0
	.byte	-63
	.byte	-128
	.byte	46
	.byte	0
	.byte	-63
	.byte	-128
	.byte	46
	.byte	0
	.byte	-63
	.byte	-128
	.byte	46
	.byte	0
	.byte	-63
	.byte	-128
	.byte	46
	.byte	0
	.byte	-63
	.byte	-128
	.byte	46
	.byte	0
	.byte	-63
	.byte	-128
	.byte	46
	.byte	0
	.byte	-63
	.byte	-128
	.byte	46
	.byte	0
	.byte	-63
	.byte	-128
	.byte	46
	.byte	0
	.byte	-63
	.byte	-128
	.byte	46
	.byte	0
	.byte	-63
	.byte	-128
	.byte	46
	.byte	0
	.byte	-63
	.byte	-128
	.byte	46
	.byte	0
	.byte	-63
	.byte	-128
	.byte	46
	.byte	0
	.byte	-63
	.globl	bmi270_legacy_feat_in
	.align	2
	.type	bmi270_legacy_feat_in, @object
	.size	bmi270_legacy_feat_in, 69
bmi270_legacy_feat_in:
	.byte	47
	.byte	1
	.byte	0
	.byte	36
	.byte	1
	.byte	2
	.byte	42
	.byte	1
	.byte	3
	.byte	43
	.byte	1
	.byte	3
	.byte	38
	.byte	1
	.byte	4
	.byte	34
	.byte	1
	.byte	5
	.byte	44
	.byte	1
	.byte	5
	.byte	4
	.byte	1
	.byte	6
	.byte	5
	.byte	1
	.byte	10
	.byte	14
	.byte	2
	.byte	0
	.byte	15
	.byte	2
	.byte	4
	.byte	16
	.byte	2
	.byte	10
	.byte	17
	.byte	3
	.byte	0
	.byte	3
	.byte	3
	.byte	4
	.byte	6
	.byte	4
	.byte	0
	.byte	7
	.byte	4
	.byte	0
	.byte	8
	.byte	4
	.byte	0
	.byte	9
	.byte	4
	.byte	4
	.byte	25
	.byte	5
	.byte	0
	.byte	26
	.byte	5
	.byte	0
	.byte	27
	.byte	5
	.byte	0
	.byte	30
	.byte	5
	.byte	0
	.byte	31
	.byte	6
	.byte	0
	.globl	bmi270_legacy_feat_out
	.align	2
	.type	bmi270_legacy_feat_out, @object
	.size	bmi270_legacy_feat_out, 24
bmi270_legacy_feat_out:
	.byte	7
	.byte	0
	.byte	0
	.byte	8
	.byte	0
	.byte	4
	.byte	14
	.byte	0
	.byte	6
	.byte	15
	.byte	0
	.byte	6
	.byte	9
	.byte	0
	.byte	8
	.byte	41
	.byte	0
	.byte	12
	.byte	39
	.byte	0
	.byte	14
	.byte	40
	.byte	0
	.byte	14
	.globl	bmi270_legacy_map_int
	.data
	.align	2
	.type	bmi270_legacy_map_int, @object
	.size	bmi270_legacy_map_int, 28
bmi270_legacy_map_int:
	.byte	3
	.byte	1
	.byte	7
	.byte	2
	.byte	6
	.byte	2
	.byte	8
	.byte	2
	.byte	15
	.byte	4
	.byte	16
	.byte	4
	.byte	28
	.byte	8
	.byte	17
	.byte	16
	.byte	5
	.byte	32
	.byte	4
	.byte	64
	.byte	14
	.byte	-128
	.byte	25
	.byte	32
	.byte	26
	.byte	64
	.byte	27
	.byte	-128
	.text
	.align	1
	.globl	bmi270_legacy_init
	.type	bmi270_legacy_init, @function
bmi270_legacy_init:
.LFB0:
	.file 1 "../applications/bmi270/bmi270_legacy.c"
	.loc 1 1828 1
	.cfi_startproc
	addi	sp,sp,-48
	.cfi_def_cfa_offset 48
	sw	ra,44(sp)
	sw	s0,40(sp)
	.cfi_offset 1, -4
	.cfi_offset 8, -8
	addi	s0,sp,48
	.cfi_def_cfa 8, 0
	sw	a0,-36(s0)
	.loc 1 1833 12
	lw	a0,-36(s0)
	call	null_ptr_check
	mv	a5,a0
	sb	a5,-17(s0)
	.loc 1 1834 8
	lb	a5,-17(s0)
	bnez	a5,.L2
	.loc 1 1837 22
	lw	a5,-36(s0)
	li	a4,36
	sb	a4,0(a5)
	.loc 1 1840 26
	lw	a5,-36(s0)
	li	a4,8192
	sh	a4,82(a5)
	.loc 1 1843 30
	lw	a5,-36(s0)
	li	a4,3
	sh	a4,80(a5)
	.loc 1 1846 16
	lw	a5,-36(s0)
	lw	a5,12(a5)
	.loc 1 1846 12
	bnez	a5,.L3
	.loc 1 1848 29
	lw	a5,-36(s0)
	li	a4,1
	sb	a4,17(a5)
	j	.L4
.L3:
	.loc 1 1852 29
	lw	a5,-36(s0)
	sb	zero,17(a5)
.L4:
	.loc 1 1856 17
	lw	a5,-36(s0)
	lw	a5,24(a5)
	.loc 1 1856 12
	bnez	a5,.L5
	.loc 1 1861 34
	lw	a5,-36(s0)
	lla	a4,bmi270_legacy_config_file
	sw	a4,24(a5)
.L5:
	.loc 1 1865 16
	lw	a0,-36(s0)
	call	bmi2_sec_init
	mv	a5,a0
	sb	a5,-17(s0)
	.loc 1 1866 12
	lb	a5,-17(s0)
	bnez	a5,.L2
	.loc 1 1871 30
	lw	a5,-36(s0)
	lla	a4,bmi270_legacy_feat_in
	sw	a4,36(a5)
	.loc 1 1876 30
	lw	a5,-36(s0)
	lla	a4,bmi270_legacy_feat_out
	sw	a4,40(a5)
	.loc 1 1881 27
	lw	a5,-36(s0)
	li	a4,8
	sb	a4,28(a5)
	.loc 1 1886 29
	lw	a5,-36(s0)
	li	a4,23
	sb	a4,29(a5)
	.loc 1 1891 27
	lw	a5,-36(s0)
	li	a4,8
	sb	a4,30(a5)
	.loc 1 1894 33
	lw	a5,-36(s0)
	lla	a4,get_tap_config
	sw	a4,92(a5)
	.loc 1 1897 33
	lw	a5,-36(s0)
	lla	a4,set_tap_config
	sw	a4,96(a5)
	.loc 1 1902 26
	lw	a5,-36(s0)
	lla	a4,bmi270_legacy_map_int
	sw	a4,100(a5)
	.loc 1 1907 31
	lw	a5,-36(s0)
	li	a4,14
	sb	a4,104(a5)
	.loc 1 1910 20
	lw	a0,-36(s0)
	call	bmi2_get_gyro_cross_sense
	mv	a5,a0
	sb	a5,-17(s0)
.L2:
	.loc 1 1914 12
	lb	a5,-17(s0)
	.loc 1 1915 1
	mv	a0,a5
	lw	ra,44(sp)
	.cfi_restore 1
	lw	s0,40(sp)
	.cfi_restore 8
	addi	sp,sp,48
	.cfi_def_cfa_register 2
	jr	ra
	.cfi_endproc
.LFE0:
	.size	bmi270_legacy_init, .-bmi270_legacy_init
	.align	1
	.globl	bmi270_legacy_sensor_enable
	.type	bmi270_legacy_sensor_enable, @function
bmi270_legacy_sensor_enable:
.LFB1:
	.loc 1 1921 1
	.cfi_startproc
	addi	sp,sp,-48
	.cfi_def_cfa_offset 48
	sw	ra,44(sp)
	sw	s0,40(sp)
	.cfi_offset 1, -4
	.cfi_offset 8, -8
	addi	s0,sp,48
	.cfi_def_cfa 8, 0
	sw	a0,-36(s0)
	mv	a5,a1
	sw	a2,-44(s0)
	sb	a5,-37(s0)
	.loc 1 1926 14
	li	a5,0
	li	a6,0
	sw	a5,-32(s0)
	sw	a6,-28(s0)
	.loc 1 1929 12
	lw	a0,-44(s0)
	call	null_ptr_check
	mv	a5,a0
	sb	a5,-17(s0)
	.loc 1 1930 8
	lb	a5,-17(s0)
	bnez	a5,.L8
	.loc 1 1930 21 discriminator 1
	lw	a5,-36(s0)
	beqz	a5,.L8
	.loc 1 1933 16
	addi	a4,s0,-32
	lbu	a5,-37(s0)
	mv	a2,a4
	mv	a1,a5
	lw	a0,-36(s0)
	call	select_sensor
	mv	a5,a0
	sb	a5,-17(s0)
	.loc 1 1934 12
	lb	a5,-17(s0)
	bnez	a5,.L10
	.loc 1 1937 20
	lw	a5,-32(s0)
	lw	a6,-28(s0)
	lw	a2,-44(s0)
	mv	a0,a5
	mv	a1,a6
	call	sensor_enable
	mv	a5,a0
	sb	a5,-17(s0)
	.loc 1 1934 12
	j	.L10
.L8:
	.loc 1 1942 14
	li	a5,-1
	sb	a5,-17(s0)
.L10:
	.loc 1 1945 12
	lb	a5,-17(s0)
	.loc 1 1946 1
	mv	a0,a5
	lw	ra,44(sp)
	.cfi_restore 1
	lw	s0,40(sp)
	.cfi_restore 8
	addi	sp,sp,48
	.cfi_def_cfa_register 2
	jr	ra
	.cfi_endproc
.LFE1:
	.size	bmi270_legacy_sensor_enable, .-bmi270_legacy_sensor_enable
	.align	1
	.globl	bmi270_legacy_sensor_disable
	.type	bmi270_legacy_sensor_disable, @function
bmi270_legacy_sensor_disable:
.LFB2:
	.loc 1 1952 1
	.cfi_startproc
	addi	sp,sp,-48
	.cfi_def_cfa_offset 48
	sw	ra,44(sp)
	sw	s0,40(sp)
	.cfi_offset 1, -4
	.cfi_offset 8, -8
	addi	s0,sp,48
	.cfi_def_cfa 8, 0
	sw	a0,-36(s0)
	mv	a5,a1
	sw	a2,-44(s0)
	sb	a5,-37(s0)
	.loc 1 1957 14
	li	a5,0
	li	a6,0
	sw	a5,-32(s0)
	sw	a6,-28(s0)
	.loc 1 1960 12
	lw	a0,-44(s0)
	call	null_ptr_check
	mv	a5,a0
	sb	a5,-17(s0)
	.loc 1 1961 8
	lb	a5,-17(s0)
	bnez	a5,.L13
	.loc 1 1961 21 discriminator 1
	lw	a5,-36(s0)
	beqz	a5,.L13
	.loc 1 1964 16
	addi	a4,s0,-32
	lbu	a5,-37(s0)
	mv	a2,a4
	mv	a1,a5
	lw	a0,-36(s0)
	call	select_sensor
	mv	a5,a0
	sb	a5,-17(s0)
	.loc 1 1965 12
	lb	a5,-17(s0)
	bnez	a5,.L15
	.loc 1 1968 20
	lw	a5,-32(s0)
	lw	a6,-28(s0)
	lw	a2,-44(s0)
	mv	a0,a5
	mv	a1,a6
	call	sensor_disable
	mv	a5,a0
	sb	a5,-17(s0)
	.loc 1 1965 12
	j	.L15
.L13:
	.loc 1 1973 14
	li	a5,-1
	sb	a5,-17(s0)
.L15:
	.loc 1 1976 12
	lb	a5,-17(s0)
	.loc 1 1977 1
	mv	a0,a5
	lw	ra,44(sp)
	.cfi_restore 1
	lw	s0,40(sp)
	.cfi_restore 8
	addi	sp,sp,48
	.cfi_def_cfa_register 2
	jr	ra
	.cfi_endproc
.LFE2:
	.size	bmi270_legacy_sensor_disable, .-bmi270_legacy_sensor_disable
	.align	1
	.globl	bmi270_legacy_set_sensor_config
	.type	bmi270_legacy_set_sensor_config, @function
bmi270_legacy_set_sensor_config:
.LFB3:
	.loc 1 1983 1
	.cfi_startproc
	addi	sp,sp,-48
	.cfi_def_cfa_offset 48
	sw	ra,44(sp)
	sw	s0,40(sp)
	.cfi_offset 1, -4
	.cfi_offset 8, -8
	addi	s0,sp,48
	.cfi_def_cfa 8, 0
	sw	a0,-36(s0)
	mv	a5,a1
	sw	a2,-44(s0)
	sb	a5,-37(s0)
	.loc 1 1991 13
	sb	zero,-19(s0)
	.loc 1 1994 12
	lw	a0,-44(s0)
	call	null_ptr_check
	mv	a5,a0
	sb	a5,-17(s0)
	.loc 1 1995 8
	lb	a5,-17(s0)
	bnez	a5,.L18
	.loc 1 1995 21 discriminator 1
	lw	a5,-36(s0)
	beqz	a5,.L18
	.loc 1 1998 18
	lw	a5,-44(s0)
	lbu	a5,79(a5)
	sb	a5,-19(s0)
	.loc 1 2000 19
	sb	zero,-18(s0)
	.loc 1 2000 9
	j	.L19
.L26:
	.loc 1 2002 26
	lbu	a4,-18(s0)
	li	a5,52
	mul	a5,a4,a5
	lw	a4,-36(s0)
	add	a5,a4,a5
	.loc 1 2002 32
	lbu	a5,0(a5)
	.loc 1 2002 16
	beqz	a5,.L20
	.loc 1 2002 56 discriminator 1
	lbu	a4,-18(s0)
	li	a5,52
	mul	a5,a4,a5
	lw	a4,-36(s0)
	add	a5,a4,a5
	.loc 1 2002 62 discriminator 1
	lbu	a4,0(a5)
	.loc 1 2002 44 discriminator 1
	li	a5,1
	beq	a4,a5,.L20
	.loc 1 2003 26 discriminator 2
	lbu	a4,-18(s0)
	li	a5,52
	mul	a5,a4,a5
	lw	a4,-36(s0)
	add	a5,a4,a5
	.loc 1 2003 32 discriminator 2
	lbu	a4,0(a5)
	.loc 1 2002 74 discriminator 2
	li	a5,2
	beq	a4,a5,.L20
	.loc 1 2003 56
	lbu	a4,-18(s0)
	li	a5,52
	mul	a5,a4,a5
	lw	a4,-36(s0)
	add	a5,a4,a5
	.loc 1 2003 62
	lbu	a4,0(a5)
	.loc 1 2003 44
	li	a5,9
	bne	a4,a5,.L21
.L20:
	.loc 1 2005 56
	lbu	a4,-18(s0)
	li	a5,52
	mul	a5,a4,a5
	.loc 1 2005 24
	lw	a4,-36(s0)
	add	a5,a4,a5
	lw	a2,-44(s0)
	li	a1,1
	mv	a0,a5
	call	bmi2_set_sensor_config
	mv	a5,a0
	sb	a5,-17(s0)
	.loc 1 2005 22
	j	.L22
.L21:
	.loc 1 2012 20
	lbu	a4,-19(s0)
	li	a5,1
	bne	a4,a5,.L23
	.loc 1 2017 28
	lw	a1,-44(s0)
	li	a0,0
	call	bmi2_set_adv_power_save
	mv	a5,a0
	sb	a5,-17(s0)
.L23:
	.loc 1 2020 20
	lb	a5,-17(s0)
	bnez	a5,.L30
	.loc 1 2022 28
	lbu	a5,-18(s0)
	lw	a2,-44(s0)
	mv	a1,a5
	lw	a0,-36(s0)
	call	set_feat_config
	mv	a5,a0
	sb	a5,-17(s0)
.L22:
	.loc 1 2000 43 discriminator 2
	lbu	a5,-18(s0)
	addi	a5,a5,1
	sb	a5,-18(s0)
.L19:
	.loc 1 2000 9 discriminator 1
	lbu	a4,-18(s0)
	lbu	a5,-37(s0)
	bltu	a4,a5,.L26
	j	.L25
.L30:
	.loc 1 2027 21
	nop
.L25:
	.loc 1 2035 12
	lbu	a4,-19(s0)
	li	a5,1
	bne	a4,a5,.L31
	.loc 1 2035 29 discriminator 1
	lb	a5,-17(s0)
	bnez	a5,.L31
	.loc 1 2037 20
	lw	a1,-44(s0)
	li	a0,1
	call	bmi2_set_adv_power_save
	mv	a5,a0
	sb	a5,-17(s0)
	.loc 1 2035 12
	j	.L31
.L18:
	.loc 1 2042 14
	li	a5,-1
	sb	a5,-17(s0)
	j	.L28
.L31:
	.loc 1 2035 12
	nop
.L28:
	.loc 1 2045 12
	lb	a5,-17(s0)
	.loc 1 2046 1
	mv	a0,a5
	lw	ra,44(sp)
	.cfi_restore 1
	lw	s0,40(sp)
	.cfi_restore 8
	addi	sp,sp,48
	.cfi_def_cfa_register 2
	jr	ra
	.cfi_endproc
.LFE3:
	.size	bmi270_legacy_set_sensor_config, .-bmi270_legacy_set_sensor_config
	.align	1
	.globl	bmi270_legacy_get_sensor_config
	.type	bmi270_legacy_get_sensor_config, @function
bmi270_legacy_get_sensor_config:
.LFB4:
	.loc 1 2052 1
	.cfi_startproc
	addi	sp,sp,-48
	.cfi_def_cfa_offset 48
	sw	ra,44(sp)
	sw	s0,40(sp)
	.cfi_offset 1, -4
	.cfi_offset 8, -8
	addi	s0,sp,48
	.cfi_def_cfa 8, 0
	sw	a0,-36(s0)
	mv	a5,a1
	sw	a2,-44(s0)
	sb	a5,-37(s0)
	.loc 1 2060 13
	sb	zero,-19(s0)
	.loc 1 2063 12
	lw	a0,-44(s0)
	call	null_ptr_check
	mv	a5,a0
	sb	a5,-17(s0)
	.loc 1 2064 8
	lb	a5,-17(s0)
	bnez	a5,.L33
	.loc 1 2064 21 discriminator 1
	lw	a5,-36(s0)
	beqz	a5,.L33
	.loc 1 2067 18
	lw	a5,-44(s0)
	lbu	a5,79(a5)
	sb	a5,-19(s0)
	.loc 1 2068 19
	sb	zero,-18(s0)
	.loc 1 2068 9
	j	.L34
.L42:
	.loc 1 2070 26
	lbu	a4,-18(s0)
	li	a5,52
	mul	a5,a4,a5
	lw	a4,-36(s0)
	add	a5,a4,a5
	.loc 1 2070 32
	lbu	a5,0(a5)
	.loc 1 2070 16
	beqz	a5,.L35
	.loc 1 2070 56 discriminator 1
	lbu	a4,-18(s0)
	li	a5,52
	mul	a5,a4,a5
	lw	a4,-36(s0)
	add	a5,a4,a5
	.loc 1 2070 62 discriminator 1
	lbu	a4,0(a5)
	.loc 1 2070 44 discriminator 1
	li	a5,1
	beq	a4,a5,.L35
	.loc 1 2071 26 discriminator 2
	lbu	a4,-18(s0)
	li	a5,52
	mul	a5,a4,a5
	lw	a4,-36(s0)
	add	a5,a4,a5
	.loc 1 2071 32 discriminator 2
	lbu	a4,0(a5)
	.loc 1 2070 74 discriminator 2
	li	a5,2
	beq	a4,a5,.L35
	.loc 1 2071 56
	lbu	a4,-18(s0)
	li	a5,52
	mul	a5,a4,a5
	lw	a4,-36(s0)
	add	a5,a4,a5
	.loc 1 2071 62
	lbu	a4,0(a5)
	.loc 1 2071 44
	li	a5,9
	bne	a4,a5,.L36
.L35:
	.loc 1 2073 56
	lbu	a4,-18(s0)
	li	a5,52
	mul	a5,a4,a5
	.loc 1 2073 24
	lw	a4,-36(s0)
	add	a5,a4,a5
	lw	a2,-44(s0)
	li	a1,1
	mv	a0,a5
	call	bmi2_get_sensor_config
	mv	a5,a0
	sb	a5,-17(s0)
	.loc 1 2073 22
	j	.L37
.L36:
	.loc 1 2080 30
	lbu	a4,-18(s0)
	li	a5,52
	mul	a5,a4,a5
	lw	a4,-36(s0)
	add	a5,a4,a5
	.loc 1 2080 36
	lbu	a4,0(a5)
	.loc 1 2080 20
	li	a5,3
	bgtu	a4,a5,.L38
	.loc 1 2080 60 discriminator 1
	lbu	a4,-18(s0)
	li	a5,52
	mul	a5,a4,a5
	lw	a4,-36(s0)
	add	a5,a4,a5
	.loc 1 2080 66 discriminator 1
	lbu	a4,0(a5)
	.loc 1 2080 48 discriminator 1
	li	a5,2
	bne	a4,a5,.L39
.L38:
	.loc 1 2083 24
	lbu	a4,-19(s0)
	li	a5,1
	bne	a4,a5,.L39
	.loc 1 2088 32
	lw	a1,-44(s0)
	li	a0,0
	call	bmi2_set_adv_power_save
	mv	a5,a0
	sb	a5,-17(s0)
.L39:
	.loc 1 2092 20
	lb	a5,-17(s0)
	bnez	a5,.L46
	.loc 1 2094 28
	lbu	a5,-18(s0)
	lw	a2,-44(s0)
	mv	a1,a5
	lw	a0,-36(s0)
	call	get_feat_config
	mv	a5,a0
	sb	a5,-17(s0)
.L37:
	.loc 1 2068 43 discriminator 2
	lbu	a5,-18(s0)
	addi	a5,a5,1
	sb	a5,-18(s0)
.L34:
	.loc 1 2068 9 discriminator 1
	lbu	a4,-18(s0)
	lbu	a5,-37(s0)
	bltu	a4,a5,.L42
	j	.L41
.L46:
	.loc 1 2099 21
	nop
.L41:
	.loc 1 2107 12
	lbu	a4,-19(s0)
	li	a5,1
	bne	a4,a5,.L47
	.loc 1 2107 29 discriminator 1
	lb	a5,-17(s0)
	bnez	a5,.L47
	.loc 1 2109 20
	lw	a1,-44(s0)
	li	a0,1
	call	bmi2_set_adv_power_save
	mv	a5,a0
	sb	a5,-17(s0)
	.loc 1 2107 12
	j	.L47
.L33:
	.loc 1 2114 14
	li	a5,-1
	sb	a5,-17(s0)
	j	.L44
.L47:
	.loc 1 2107 12
	nop
.L44:
	.loc 1 2117 12
	lb	a5,-17(s0)
	.loc 1 2118 1
	mv	a0,a5
	lw	ra,44(sp)
	.cfi_restore 1
	lw	s0,40(sp)
	.cfi_restore 8
	addi	sp,sp,48
	.cfi_def_cfa_register 2
	jr	ra
	.cfi_endproc
.LFE4:
	.size	bmi270_legacy_get_sensor_config, .-bmi270_legacy_get_sensor_config
	.align	1
	.globl	bmi270_legacy_get_feature_data
	.type	bmi270_legacy_get_feature_data, @function
bmi270_legacy_get_feature_data:
.LFB5:
	.loc 1 2124 1
	.cfi_startproc
	addi	sp,sp,-48
	.cfi_def_cfa_offset 48
	sw	ra,44(sp)
	sw	s0,40(sp)
	.cfi_offset 1, -4
	.cfi_offset 8, -8
	addi	s0,sp,48
	.cfi_def_cfa 8, 0
	sw	a0,-36(s0)
	mv	a5,a1
	sw	a2,-44(s0)
	sb	a5,-37(s0)
	.loc 1 2132 13
	sb	zero,-19(s0)
	.loc 1 2135 12
	lw	a0,-44(s0)
	call	null_ptr_check
	mv	a5,a0
	sb	a5,-17(s0)
	.loc 1 2136 8
	lb	a5,-17(s0)
	bnez	a5,.L49
	.loc 1 2136 21 discriminator 1
	lw	a5,-36(s0)
	beqz	a5,.L49
	.loc 1 2139 18
	lw	a5,-44(s0)
	lbu	a5,79(a5)
	sb	a5,-19(s0)
	.loc 1 2140 19
	sb	zero,-18(s0)
	.loc 1 2140 9
	j	.L50
.L66:
	.loc 1 2142 30
	lbu	a5,-18(s0)
	slli	a5,a5,4
	lw	a4,-36(s0)
	add	a5,a4,a5
	.loc 1 2142 36
	lbu	a4,0(a5)
	.loc 1 2142 16
	li	a5,9
	beq	a4,a5,.L51
	.loc 1 2143 30 discriminator 1
	lbu	a5,-18(s0)
	slli	a5,a5,4
	lw	a4,-36(s0)
	add	a5,a4,a5
	.loc 1 2143 36 discriminator 1
	lbu	a4,0(a5)
	.loc 1 2142 48 discriminator 1
	li	a5,41
	bne	a4,a5,.L52
.L51:
	.loc 1 2145 59
	lbu	a5,-18(s0)
	slli	a5,a5,4
	.loc 1 2145 24
	lw	a4,-36(s0)
	add	a5,a4,a5
	lw	a2,-44(s0)
	li	a1,1
	mv	a0,a5
	call	bmi2_get_feature_data
	mv	a5,a0
	sb	a5,-17(s0)
	.loc 1 2145 22
	j	.L53
.L52:
	.loc 1 2152 33
	lbu	a5,-18(s0)
	slli	a5,a5,4
	lw	a4,-36(s0)
	add	a5,a4,a5
	.loc 1 2152 39
	lbu	a4,0(a5)
	.loc 1 2152 20
	li	a5,3
	bleu	a4,a5,.L54
	.loc 1 2154 24
	lbu	a4,-19(s0)
	li	a5,1
	bne	a4,a5,.L54
	.loc 1 2159 32
	lw	a1,-44(s0)
	li	a0,0
	call	bmi2_set_adv_power_save
	mv	a5,a0
	sb	a5,-17(s0)
.L54:
	.loc 1 2163 20
	lb	a5,-17(s0)
	bnez	a5,.L70
	.loc 1 2165 41
	lbu	a5,-18(s0)
	slli	a5,a5,4
	lw	a4,-36(s0)
	add	a5,a4,a5
	.loc 1 2165 47
	lbu	a5,0(a5)
	.loc 1 2165 21
	addi	a5,a5,-7
	li	a4,33
	bgtu	a5,a4,.L56
	slli	a4,a5,2
	lla	a5,.L58
	add	a5,a4,a5
	lw	a4,0(a5)
	lla	a5,.L58
	add	a5,a4,a5
	jr	a5
	.section	.rodata
	.align	2
	.align	2
.L58:
	.word	.L63-.L58
	.word	.L62-.L58
	.word	.L56-.L58
	.word	.L56-.L58
	.word	.L56-.L58
	.word	.L56-.L58
	.word	.L56-.L58
	.word	.L61-.L58
	.word	.L60-.L58
	.word	.L56-.L58
	.word	.L56-.L58
	.word	.L56-.L58
	.word	.L56-.L58
	.word	.L56-.L58
	.word	.L56-.L58
	.word	.L56-.L58
	.word	.L56-.L58
	.word	.L56-.L58
	.word	.L56-.L58
	.word	.L56-.L58
	.word	.L56-.L58
	.word	.L56-.L58
	.word	.L56-.L58
	.word	.L56-.L58
	.word	.L56-.L58
	.word	.L56-.L58
	.word	.L56-.L58
	.word	.L56-.L58
	.word	.L56-.L58
	.word	.L56-.L58
	.word	.L56-.L58
	.word	.L56-.L58
	.word	.L59-.L58
	.word	.L57-.L58
	.text
.L63:
	.loc 1 2170 73
	lbu	a5,-18(s0)
	slli	a5,a5,4
	lw	a4,-36(s0)
	add	a5,a4,a5
	.loc 1 2170 36
	addi	a5,a5,4
	lw	a1,-44(s0)
	mv	a0,a5
	call	get_step_counter_output
	mv	a5,a0
	sb	a5,-17(s0)
	.loc 1 2171 29
	j	.L55
.L62:
	.loc 1 2176 74
	lbu	a5,-18(s0)
	slli	a5,a5,4
	lw	a4,-36(s0)
	add	a5,a4,a5
	.loc 1 2176 36
	addi	a5,a5,4
	lw	a1,-44(s0)
	mv	a0,a5
	call	get_step_activity_output
	mv	a5,a0
	sb	a5,-17(s0)
	.loc 1 2177 29
	j	.L55
.L61:
	.loc 1 2182 67
	lbu	a5,-18(s0)
	slli	a5,a5,4
	lw	a4,-36(s0)
	add	a5,a4,a5
	.loc 1 2182 36
	addi	a5,a5,4
	lw	a1,-44(s0)
	mv	a0,a5
	call	get_orient_output
	mv	a5,a0
	sb	a5,-17(s0)
	.loc 1 2183 29
	j	.L55
.L60:
	.loc 1 2188 67
	lbu	a5,-18(s0)
	slli	a5,a5,4
	lw	a4,-36(s0)
	add	a5,a4,a5
	.loc 1 2188 36
	addi	a5,a5,4
	lw	a1,-44(s0)
	mv	a0,a5
	call	get_high_g_output
	mv	a5,a0
	sb	a5,-17(s0)
	.loc 1 2189 29
	j	.L55
.L59:
	.loc 1 2194 70
	lbu	a5,-18(s0)
	slli	a5,a5,4
	lw	a4,-36(s0)
	add	a5,a4,a5
	.loc 1 2194 36
	addi	a5,a5,4
	lw	a1,-44(s0)
	mv	a0,a5
	call	get_nvm_error_status
	mv	a5,a0
	sb	a5,-17(s0)
	.loc 1 2195 29
	j	.L55
.L57:
	.loc 1 2200 71
	lbu	a5,-18(s0)
	slli	a5,a5,4
	lw	a4,-36(s0)
	add	a5,a4,a5
	.loc 1 2200 36
	addi	a5,a5,4
	lw	a1,-44(s0)
	mv	a0,a5
	call	get_vfrm_error_status
	mv	a5,a0
	sb	a5,-17(s0)
	.loc 1 2201 29
	j	.L55
.L56:
	.loc 1 2204 34
	li	a5,-8
	sb	a5,-17(s0)
	.loc 1 2205 29
	j	.L55
.L70:
	.loc 1 2207 17
	nop
.L55:
	.loc 1 2210 20
	lb	a5,-17(s0)
	bnez	a5,.L71
.L53:
	.loc 1 2219 16
	lbu	a4,-19(s0)
	li	a5,1
	bne	a4,a5,.L65
	.loc 1 2219 33 discriminator 1
	lb	a5,-17(s0)
	bnez	a5,.L65
	.loc 1 2221 24
	lw	a1,-44(s0)
	li	a0,1
	call	bmi2_set_adv_power_save
	mv	a5,a0
	sb	a5,-17(s0)
.L65:
	.loc 1 2140 43 discriminator 2
	lbu	a5,-18(s0)
	addi	a5,a5,1
	sb	a5,-18(s0)
.L50:
	.loc 1 2140 9 discriminator 1
	lbu	a4,-18(s0)
	lbu	a5,-37(s0)
	bltu	a4,a5,.L66
	.loc 1 2136 8
	j	.L67
.L71:
	.loc 1 2212 21
	nop
	.loc 1 2136 8
	j	.L67
.L49:
	.loc 1 2227 14
	li	a5,-1
	sb	a5,-17(s0)
.L67:
	.loc 1 2230 12
	lb	a5,-17(s0)
	.loc 1 2231 1
	mv	a0,a5
	lw	ra,44(sp)
	.cfi_restore 1
	lw	s0,40(sp)
	.cfi_restore 8
	addi	sp,sp,48
	.cfi_def_cfa_register 2
	jr	ra
	.cfi_endproc
.LFE5:
	.size	bmi270_legacy_get_feature_data, .-bmi270_legacy_get_feature_data
	.align	1
	.globl	bmi270_legacy_update_gyro_user_gain
	.type	bmi270_legacy_update_gyro_user_gain, @function
bmi270_legacy_update_gyro_user_gain:
.LFB6:
	.loc 1 2237 1
	.cfi_startproc
	addi	sp,sp,-96
	.cfi_def_cfa_offset 96
	sw	ra,92(sp)
	sw	s0,88(sp)
	.cfi_offset 1, -4
	.cfi_offset 8, -8
	addi	s0,sp,96
	.cfi_def_cfa 8, 0
	sw	a0,-84(s0)
	sw	a1,-88(s0)
	.loc 1 2242 13
	li	a5,1
	sb	a5,-20(s0)
	li	a5,9
	sb	a5,-19(s0)
	.loc 1 2248 13
	sb	zero,-73(s0)
	.loc 1 2251 13
	li	a5,100
	sb	a5,-18(s0)
	.loc 1 2254 12
	lw	a0,-88(s0)
	call	null_ptr_check
	mv	a5,a0
	sb	a5,-17(s0)
	.loc 1 2255 8
	lb	a5,-17(s0)
	bnez	a5,.L73
	.loc 1 2255 21 discriminator 1
	lw	a5,-84(s0)
	beqz	a5,.L73
	.loc 1 2258 23
	li	a5,9
	sb	a5,-72(s0)
	.loc 1 2261 16
	addi	a5,s0,-72
	lw	a2,-88(s0)
	li	a1,1
	mv	a0,a5
	call	bmi270_legacy_get_sensor_config
	mv	a5,a0
	sb	a5,-17(s0)
	.loc 1 2262 12
	lb	a5,-17(s0)
	bnez	a5,.L74
	.loc 1 2265 43
	lw	a5,-84(s0)
	lhu	a4,0(a5)
	sh	a4,-70(s0)
	lhu	a4,2(a5)
	sh	a4,-68(s0)
	lhu	a5,4(a5)
	sh	a5,-66(s0)
	.loc 1 2268 20
	addi	a5,s0,-72
	lw	a2,-88(s0)
	li	a1,1
	mv	a0,a5
	call	bmi270_legacy_set_sensor_config
	mv	a5,a0
	sb	a5,-17(s0)
.L74:
	.loc 1 2272 12
	lb	a5,-17(s0)
	bnez	a5,.L75
	.loc 1 2274 20
	addi	a5,s0,-20
	lw	a2,-88(s0)
	li	a1,1
	mv	a0,a5
	call	bmi270_legacy_sensor_disable
	mv	a5,a0
	sb	a5,-17(s0)
.L75:
	.loc 1 2278 12
	lb	a5,-17(s0)
	bnez	a5,.L76
	.loc 1 2280 20
	addi	a5,s0,-20
	addi	a5,a5,1
	lw	a2,-88(s0)
	li	a1,1
	mv	a0,a5
	call	bmi270_legacy_sensor_enable
	mv	a5,a0
	sb	a5,-17(s0)
.L76:
	.loc 1 2284 12
	lb	a5,-17(s0)
	bnez	a5,.L77
	.loc 1 2286 20
	lw	a1,-88(s0)
	li	a0,3
	call	bmi2_set_command_register
	mv	a5,a0
	sb	a5,-17(s0)
.L77:
	.loc 1 2289 12
	lb	a5,-17(s0)
	bnez	a5,.L87
	.loc 1 2292 19
	j	.L79
.L83:
	.loc 1 2294 24
	addi	a5,s0,-73
	lw	a1,-88(s0)
	mv	a0,a5
	call	get_user_gain_upd_status
	mv	a5,a0
	sb	a5,-17(s0)
	.loc 1 2295 20
	lb	a5,-17(s0)
	bnez	a5,.L80
	.loc 1 2295 44 discriminator 1
	lbu	a5,-73(s0)
	.loc 1 2295 33 discriminator 1
	bnez	a5,.L80
	.loc 1 2300 28
	lw	a1,-88(s0)
	li	a0,1
	call	enable_gyro_gain
	mv	a5,a0
	sb	a5,-17(s0)
	.loc 1 2303 24
	lb	a5,-17(s0)
	bnez	a5,.L86
	.loc 1 2305 32
	addi	a5,s0,-20
	lw	a2,-88(s0)
	li	a1,1
	mv	a0,a5
	call	bmi270_legacy_sensor_enable
	mv	a5,a0
	sb	a5,-17(s0)
	.loc 1 2308 21
	j	.L86
.L80:
	.loc 1 2311 20
	lw	a5,-88(s0)
	lw	a4,72(a5)
	.loc 1 2311 17
	lw	a5,-88(s0)
	lw	a5,4(a5)
	mv	a1,a5
	li	a5,8192
	addi	a0,a5,1808
	jalr	a4
.LVL0:
.L79:
	.loc 1 2292 25
	lbu	a5,-18(s0)
	addi	a4,a5,-1
	sb	a4,-18(s0)
	.loc 1 2292 19
	bnez	a5,.L83
	j	.L82
.L86:
	.loc 1 2308 21
	nop
.L82:
	.loc 1 2315 16
	lb	a5,-17(s0)
	bnez	a5,.L87
	.loc 1 2315 40 discriminator 1
	lbu	a5,-73(s0)
	.loc 1 2315 29 discriminator 1
	beqz	a5,.L87
	.loc 1 2317 22
	li	a5,-18
	sb	a5,-17(s0)
	.loc 1 2289 12
	j	.L87
.L73:
	.loc 1 2323 14
	li	a5,-1
	sb	a5,-17(s0)
	j	.L84
.L87:
	.loc 1 2289 12
	nop
.L84:
	.loc 1 2326 12
	lb	a5,-17(s0)
	.loc 1 2327 1
	mv	a0,a5
	lw	ra,92(sp)
	.cfi_restore 1
	lw	s0,88(sp)
	.cfi_restore 8
	addi	sp,sp,96
	.cfi_def_cfa_register 2
	jr	ra
	.cfi_endproc
.LFE6:
	.size	bmi270_legacy_update_gyro_user_gain, .-bmi270_legacy_update_gyro_user_gain
	.align	1
	.globl	bmi270_legacy_read_gyro_user_gain
	.type	bmi270_legacy_read_gyro_user_gain, @function
bmi270_legacy_read_gyro_user_gain:
.LFB7:
	.loc 1 2333 1
	.cfi_startproc
	addi	sp,sp,-48
	.cfi_def_cfa_offset 48
	sw	ra,44(sp)
	sw	s0,40(sp)
	.cfi_offset 1, -4
	.cfi_offset 8, -8
	addi	s0,sp,48
	.cfi_def_cfa 8, 0
	sw	a0,-36(s0)
	sw	a1,-40(s0)
	.loc 1 2338 13
	sh	zero,-20(s0)
	sb	zero,-18(s0)
	.loc 1 2341 12
	lw	a0,-40(s0)
	call	null_ptr_check
	mv	a5,a0
	sb	a5,-17(s0)
	.loc 1 2342 8
	lb	a5,-17(s0)
	bnez	a5,.L89
	.loc 1 2342 21 discriminator 1
	lw	a5,-36(s0)
	beqz	a5,.L89
	.loc 1 2345 16
	addi	a5,s0,-20
	lw	a3,-40(s0)
	li	a2,3
	mv	a1,a5
	li	a0,120
	call	bmi2_get_regs
	mv	a5,a0
	sb	a5,-17(s0)
	.loc 1 2346 12
	lb	a5,-17(s0)
	bnez	a5,.L91
	.loc 1 2349 48
	lbu	a5,-20(s0)
	slli	a5,a5,24
	srai	a5,a5,24
	.loc 1 2349 31
	andi	a5,a5,127
	slli	a4,a5,24
	srai	a4,a4,24
	.loc 1 2349 29
	lw	a5,-36(s0)
	sb	a4,0(a5)
	.loc 1 2352 48
	lbu	a5,-19(s0)
	slli	a5,a5,24
	srai	a5,a5,24
	.loc 1 2352 31
	andi	a5,a5,127
	slli	a4,a5,24
	srai	a4,a4,24
	.loc 1 2352 29
	lw	a5,-36(s0)
	sb	a4,1(a5)
	.loc 1 2355 48
	lbu	a5,-18(s0)
	slli	a5,a5,24
	srai	a5,a5,24
	.loc 1 2355 31
	andi	a5,a5,127
	slli	a4,a5,24
	srai	a4,a4,24
	.loc 1 2355 29
	lw	a5,-36(s0)
	sb	a4,2(a5)
	.loc 1 2346 12
	j	.L91
.L89:
	.loc 1 2360 14
	li	a5,-1
	sb	a5,-17(s0)
.L91:
	.loc 1 2363 12
	lb	a5,-17(s0)
	.loc 1 2364 1
	mv	a0,a5
	lw	ra,44(sp)
	.cfi_restore 1
	lw	s0,40(sp)
	.cfi_restore 8
	addi	sp,sp,48
	.cfi_def_cfa_register 2
	jr	ra
	.cfi_endproc
.LFE7:
	.size	bmi270_legacy_read_gyro_user_gain, .-bmi270_legacy_read_gyro_user_gain
	.align	1
	.globl	bmi270_legacy_map_feat_int
	.type	bmi270_legacy_map_feat_int, @function
bmi270_legacy_map_feat_int:
.LFB8:
	.loc 1 2370 1
	.cfi_startproc
	addi	sp,sp,-48
	.cfi_def_cfa_offset 48
	sw	ra,44(sp)
	sw	s0,40(sp)
	.cfi_offset 1, -4
	.cfi_offset 8, -8
	addi	s0,sp,48
	.cfi_def_cfa 8, 0
	sw	a0,-36(s0)
	mv	a5,a1
	sw	a2,-44(s0)
	sb	a5,-37(s0)
	.loc 1 2378 12
	lw	a0,-44(s0)
	call	null_ptr_check
	mv	a5,a0
	sb	a5,-17(s0)
	.loc 1 2379 8
	lb	a5,-17(s0)
	bnez	a5,.L94
	.loc 1 2379 21 discriminator 1
	lw	a5,-36(s0)
	beqz	a5,.L94
	.loc 1 2381 19
	sb	zero,-18(s0)
	.loc 1 2381 9
	j	.L95
.L102:
	.loc 1 2383 29
	lbu	a5,-18(s0)
	slli	a5,a5,3
	lw	a4,-36(s0)
	add	a5,a4,a5
	.loc 1 2383 35
	lbu	a5,0(a5)
	.loc 1 2383 13
	addi	a5,a5,-3
	li	a4,25
	bgtu	a5,a4,.L96
	slli	a4,a5,2
	lla	a5,.L98
	add	a5,a4,a5
	lw	a4,0(a5)
	lla	a5,.L98
	add	a5,a4,a5
	jr	a5
	.section	.rodata
	.align	2
	.align	2
.L98:
	.word	.L97-.L98
	.word	.L97-.L98
	.word	.L97-.L98
	.word	.L97-.L98
	.word	.L97-.L98
	.word	.L97-.L98
	.word	.L96-.L98
	.word	.L96-.L98
	.word	.L96-.L98
	.word	.L96-.L98
	.word	.L96-.L98
	.word	.L97-.L98
	.word	.L97-.L98
	.word	.L97-.L98
	.word	.L97-.L98
	.word	.L96-.L98
	.word	.L96-.L98
	.word	.L96-.L98
	.word	.L96-.L98
	.word	.L96-.L98
	.word	.L96-.L98
	.word	.L96-.L98
	.word	.L96-.L98
	.word	.L96-.L98
	.word	.L96-.L98
	.word	.L97-.L98
	.text
.L97:
	.loc 1 2397 54
	lbu	a5,-18(s0)
	slli	a5,a5,3
	lw	a4,-36(s0)
	add	a5,a4,a5
	.loc 1 2397 28
	lbu	a3,0(a5)
	.loc 1 2397 75
	lbu	a5,-18(s0)
	slli	a5,a5,3
	lw	a4,-36(s0)
	add	a5,a4,a5
	.loc 1 2397 28
	lw	a5,4(a5)
	lw	a2,-44(s0)
	mv	a1,a5
	mv	a0,a3
	call	bmi2_map_feat_int
	mv	a5,a0
	sb	a5,-17(s0)
	.loc 1 2398 21
	j	.L99
.L96:
	.loc 1 2400 26
	li	a5,-8
	sb	a5,-17(s0)
	.loc 1 2401 21
	nop
.L99:
	.loc 1 2405 16
	lb	a5,-17(s0)
	bnez	a5,.L106
	.loc 1 2381 43 discriminator 2
	lbu	a5,-18(s0)
	addi	a5,a5,1
	sb	a5,-18(s0)
.L95:
	.loc 1 2381 9 discriminator 1
	lbu	a4,-18(s0)
	lbu	a5,-37(s0)
	bltu	a4,a5,.L102
	.loc 1 2379 8
	j	.L103
.L106:
	.loc 1 2407 17
	nop
	.loc 1 2379 8
	j	.L103
.L94:
	.loc 1 2413 14
	li	a5,-1
	sb	a5,-17(s0)
.L103:
	.loc 1 2416 12
	lb	a5,-17(s0)
	.loc 1 2417 1
	mv	a0,a5
	lw	ra,44(sp)
	.cfi_restore 1
	lw	s0,40(sp)
	.cfi_restore 8
	addi	sp,sp,48
	.cfi_def_cfa_register 2
	jr	ra
	.cfi_endproc
.LFE8:
	.size	bmi270_legacy_map_feat_int, .-bmi270_legacy_map_feat_int
	.align	1
	.type	get_tap_config, @function
get_tap_config:
.LFB9:
	.loc 1 2428 1
	.cfi_startproc
	addi	sp,sp,-48
	.cfi_def_cfa_offset 48
	sw	ra,44(sp)
	sw	s0,40(sp)
	.cfi_offset 1, -4
	.cfi_offset 8, -8
	addi	s0,sp,48
	.cfi_def_cfa 8, 0
	sw	a0,-36(s0)
	sw	a1,-40(s0)
	.loc 1 2432 12
	lw	a1,-40(s0)
	lw	a0,-36(s0)
	call	get_config_page_primary
	mv	a5,a0
	sb	a5,-17(s0)
	.loc 1 2434 8
	lb	a5,-17(s0)
	bnez	a5,.L108
	.loc 1 2436 16
	lw	a1,-40(s0)
	lw	a0,-36(s0)
	call	get_config_page_secondary
	mv	a5,a0
	sb	a5,-17(s0)
.L108:
	.loc 1 2439 12
	lb	a5,-17(s0)
	.loc 1 2440 1
	mv	a0,a5
	lw	ra,44(sp)
	.cfi_restore 1
	lw	s0,40(sp)
	.cfi_restore 8
	addi	sp,sp,48
	.cfi_def_cfa_register 2
	jr	ra
	.cfi_endproc
.LFE9:
	.size	get_tap_config, .-get_tap_config
	.align	1
	.type	get_config_page_primary, @function
get_config_page_primary:
.LFB10:
	.loc 1 2447 1
	.cfi_startproc
	addi	sp,sp,-80
	.cfi_def_cfa_offset 80
	sw	ra,76(sp)
	sw	s0,72(sp)
	.cfi_offset 1, -4
	.cfi_offset 8, -8
	addi	s0,sp,80
	.cfi_def_cfa 8, 0
	sw	a0,-68(s0)
	sw	a1,-72(s0)
	.loc 1 2449 12
	sb	zero,-17(s0)
	.loc 1 2452 22
	lw	a5,-72(s0)
	sw	a5,-24(s0)
	.loc 1 2455 13
	sw	zero,-48(s0)
	sw	zero,-44(s0)
	sw	zero,-40(s0)
	sw	zero,-36(s0)
	.loc 1 2458 13
	sb	zero,-25(s0)
	.loc 1 2461 13
	sb	zero,-26(s0)
	.loc 1 2464 13
	sb	zero,-27(s0)
	.loc 1 2467 14
	sh	zero,-30(s0)
	.loc 1 2473 32
	sb	zero,-52(s0)
	sb	zero,-51(s0)
	sb	zero,-50(s0)
	.loc 1 2476 26
	lla	a5,bmi270_legacy_config
	lw	a4,-68(s0)
	sw	a4,0(a5)
	.loc 1 2479 18
	addi	a5,s0,-52
	lw	a2,-24(s0)
	li	a1,30
	mv	a0,a5
	call	bmi2_extract_input_feat_config
	mv	a5,a0
	sb	a5,-31(s0)
	.loc 1 2481 8
	lbu	a4,-31(s0)
	li	a5,1
	bne	a4,a5,.L111
	.loc 1 2484 16
	lbu	a5,-51(s0)
	addi	a4,s0,-48
	lw	a2,-24(s0)
	mv	a1,a4
	mv	a0,a5
	call	bmi2_get_feat_config
	mv	a5,a0
	sb	a5,-17(s0)
	.loc 1 2485 12
	lb	a5,-17(s0)
	bnez	a5,.L113
	.loc 1 2488 17
	lbu	a5,-50(s0)
	sb	a5,-25(s0)
	.loc 1 2493 34
	lbu	a5,-25(s0)
	addi	a4,a5,1
	sb	a4,-25(s0)
	.loc 1 2493 17
	addi	a4,s0,-16
	add	a5,a4,a5
	lbu	a5,-32(a5)
	sb	a5,-26(s0)
	.loc 1 2494 34
	lbu	a5,-25(s0)
	addi	a4,a5,1
	sb	a4,-25(s0)
	.loc 1 2494 17
	addi	a4,s0,-16
	add	a5,a4,a5
	lbu	a5,-32(a5)
	sb	a5,-27(s0)
	.loc 1 2495 24
	lbu	a5,-27(s0)
	.loc 1 2495 38
	slli	a5,a5,8
	.loc 1 2495 44
	slli	a4,a5,16
	srai	a4,a4,16
	lbu	a5,-26(s0)
	slli	a5,a5,16
	srai	a5,a5,16
	or	a5,a4,a5
	slli	a5,a5,16
	srai	a5,a5,16
	.loc 1 2495 21
	sh	a5,-30(s0)
	.loc 1 2498 66
	lhu	a5,-30(s0)
	srai	a5,a5,3
	slli	a4,a5,16
	srli	a4,a4,16
	.loc 1 2498 33
	lla	a5,bmi270_legacy_config
	lw	a5,0(a5)
	.loc 1 2498 66
	andi	a4,a4,1
	slli	a4,a4,16
	srli	a4,a4,16
	.loc 1 2498 47
	sh	a4,0(a5)
	.loc 1 2501 17
	li	a5,4
	sb	a5,-25(s0)
	.loc 1 2502 34
	lbu	a5,-25(s0)
	addi	a4,a5,1
	sb	a4,-25(s0)
	.loc 1 2502 17
	addi	a4,s0,-16
	add	a5,a4,a5
	lbu	a5,-32(a5)
	sb	a5,-26(s0)
	.loc 1 2503 34
	lbu	a5,-25(s0)
	addi	a4,a5,1
	sb	a4,-25(s0)
	.loc 1 2503 17
	addi	a4,s0,-16
	add	a5,a4,a5
	lbu	a5,-32(a5)
	sb	a5,-27(s0)
	.loc 1 2504 24
	lbu	a5,-27(s0)
	.loc 1 2504 38
	slli	a5,a5,8
	.loc 1 2504 44
	slli	a4,a5,16
	srai	a4,a4,16
	lbu	a5,-26(s0)
	slli	a5,a5,16
	srai	a5,a5,16
	or	a5,a4,a5
	slli	a5,a5,16
	srai	a5,a5,16
	.loc 1 2504 21
	sh	a5,-30(s0)
	.loc 1 2507 33
	lla	a5,bmi270_legacy_config
	lw	a5,0(a5)
	.loc 1 2507 50
	lhu	a4,-30(s0)
	sh	a4,2(a5)
	.loc 1 2510 17
	li	a5,6
	sb	a5,-25(s0)
	.loc 1 2511 34
	lbu	a5,-25(s0)
	addi	a4,a5,1
	sb	a4,-25(s0)
	.loc 1 2511 17
	addi	a4,s0,-16
	add	a5,a4,a5
	lbu	a5,-32(a5)
	sb	a5,-26(s0)
	.loc 1 2512 34
	lbu	a5,-25(s0)
	addi	a4,a5,1
	sb	a4,-25(s0)
	.loc 1 2512 17
	addi	a4,s0,-16
	add	a5,a4,a5
	lbu	a5,-32(a5)
	sb	a5,-27(s0)
	.loc 1 2513 24
	lbu	a5,-27(s0)
	.loc 1 2513 38
	slli	a5,a5,8
	.loc 1 2513 44
	slli	a4,a5,16
	srai	a4,a4,16
	lbu	a5,-26(s0)
	slli	a5,a5,16
	srai	a5,a5,16
	or	a5,a4,a5
	slli	a5,a5,16
	srai	a5,a5,16
	.loc 1 2513 21
	sh	a5,-30(s0)
	.loc 1 2516 33
	lla	a5,bmi270_legacy_config
	lw	a5,0(a5)
	.loc 1 2516 48
	lhu	a4,-30(s0)
	sh	a4,4(a5)
	.loc 1 2519 17
	li	a5,14
	sb	a5,-25(s0)
	.loc 1 2520 34
	lbu	a5,-25(s0)
	addi	a4,a5,1
	sb	a4,-25(s0)
	.loc 1 2520 17
	addi	a4,s0,-16
	add	a5,a4,a5
	lbu	a5,-32(a5)
	sb	a5,-26(s0)
	.loc 1 2521 34
	lbu	a5,-25(s0)
	addi	a4,a5,1
	sb	a4,-25(s0)
	.loc 1 2521 17
	addi	a4,s0,-16
	add	a5,a4,a5
	lbu	a5,-32(a5)
	sb	a5,-27(s0)
	.loc 1 2522 24
	lbu	a5,-27(s0)
	.loc 1 2522 38
	slli	a5,a5,8
	.loc 1 2522 44
	slli	a4,a5,16
	srai	a4,a4,16
	lbu	a5,-26(s0)
	slli	a5,a5,16
	srai	a5,a5,16
	or	a5,a4,a5
	slli	a5,a5,16
	srai	a5,a5,16
	.loc 1 2522 21
	sh	a5,-30(s0)
	.loc 1 2525 33
	lla	a5,bmi270_legacy_config
	lw	a5,0(a5)
	.loc 1 2525 57
	lhu	a4,-30(s0)
	sh	a4,6(a5)
	j	.L113
.L111:
	.loc 1 2530 14
	li	a5,-8
	sb	a5,-17(s0)
.L113:
	.loc 1 2533 12
	lb	a5,-17(s0)
	.loc 1 2534 1
	mv	a0,a5
	lw	ra,76(sp)
	.cfi_restore 1
	lw	s0,72(sp)
	.cfi_restore 8
	addi	sp,sp,80
	.cfi_def_cfa_register 2
	jr	ra
	.cfi_endproc
.LFE10:
	.size	get_config_page_primary, .-get_config_page_primary
	.align	1
	.type	get_config_page_secondary, @function
get_config_page_secondary:
.LFB11:
	.loc 1 2541 1
	.cfi_startproc
	addi	sp,sp,-80
	.cfi_def_cfa_offset 80
	sw	ra,76(sp)
	sw	s0,72(sp)
	.cfi_offset 1, -4
	.cfi_offset 8, -8
	addi	s0,sp,80
	.cfi_def_cfa 8, 0
	sw	a0,-68(s0)
	sw	a1,-72(s0)
	.loc 1 2543 12
	sb	zero,-17(s0)
	.loc 1 2546 22
	lw	a5,-72(s0)
	sw	a5,-24(s0)
	.loc 1 2549 13
	sw	zero,-48(s0)
	sw	zero,-44(s0)
	sw	zero,-40(s0)
	sw	zero,-36(s0)
	.loc 1 2552 13
	sb	zero,-25(s0)
	.loc 1 2555 13
	sb	zero,-26(s0)
	.loc 1 2558 13
	sb	zero,-27(s0)
	.loc 1 2561 14
	sh	zero,-30(s0)
	.loc 1 2567 32
	sb	zero,-52(s0)
	sb	zero,-51(s0)
	sb	zero,-50(s0)
	.loc 1 2570 18
	addi	a5,s0,-52
	lw	a2,-24(s0)
	li	a1,31
	mv	a0,a5
	call	bmi2_extract_input_feat_config
	mv	a5,a0
	sb	a5,-31(s0)
	.loc 1 2573 26
	lla	a5,bmi270_legacy_config
	lw	a4,-68(s0)
	sw	a4,0(a5)
	.loc 1 2575 8
	lbu	a4,-31(s0)
	li	a5,1
	bne	a4,a5,.L116
	.loc 1 2578 16
	lbu	a5,-51(s0)
	addi	a4,s0,-48
	lw	a2,-24(s0)
	mv	a1,a4
	mv	a0,a5
	call	bmi2_get_feat_config
	mv	a5,a0
	sb	a5,-17(s0)
	.loc 1 2579 12
	lb	a5,-17(s0)
	bnez	a5,.L118
	.loc 1 2582 17
	lbu	a5,-50(s0)
	sb	a5,-25(s0)
	.loc 1 2585 34
	lbu	a5,-25(s0)
	addi	a4,a5,1
	sb	a4,-25(s0)
	.loc 1 2585 17
	addi	a4,s0,-16
	add	a5,a4,a5
	lbu	a5,-32(a5)
	sb	a5,-26(s0)
	.loc 1 2586 34
	lbu	a5,-25(s0)
	addi	a4,a5,1
	sb	a4,-25(s0)
	.loc 1 2586 17
	addi	a4,s0,-16
	add	a5,a4,a5
	lbu	a5,-32(a5)
	sb	a5,-27(s0)
	.loc 1 2587 24
	lbu	a5,-27(s0)
	.loc 1 2587 38
	slli	a5,a5,8
	.loc 1 2587 44
	slli	a4,a5,16
	srai	a4,a4,16
	lbu	a5,-26(s0)
	slli	a5,a5,16
	srai	a5,a5,16
	or	a5,a4,a5
	slli	a5,a5,16
	srai	a5,a5,16
	.loc 1 2587 21
	sh	a5,-30(s0)
	.loc 1 2590 33
	lla	a5,bmi270_legacy_config
	lw	a5,0(a5)
	.loc 1 2590 52
	lhu	a4,-30(s0)
	sh	a4,8(a5)
	.loc 1 2592 17
	li	a5,4
	sb	a5,-25(s0)
	.loc 1 2595 34
	lbu	a5,-25(s0)
	addi	a4,a5,1
	sb	a4,-25(s0)
	.loc 1 2595 17
	addi	a4,s0,-16
	add	a5,a4,a5
	lbu	a5,-32(a5)
	sb	a5,-26(s0)
	.loc 1 2596 34
	lbu	a5,-25(s0)
	addi	a4,a5,1
	sb	a4,-25(s0)
	.loc 1 2596 17
	addi	a4,s0,-16
	add	a5,a4,a5
	lbu	a5,-32(a5)
	sb	a5,-27(s0)
	.loc 1 2597 24
	lbu	a5,-27(s0)
	.loc 1 2597 38
	slli	a5,a5,8
	.loc 1 2597 44
	slli	a4,a5,16
	srai	a4,a4,16
	lbu	a5,-26(s0)
	slli	a5,a5,16
	srai	a5,a5,16
	or	a5,a4,a5
	slli	a5,a5,16
	srai	a5,a5,16
	.loc 1 2597 21
	sh	a5,-30(s0)
	.loc 1 2600 33
	lla	a5,bmi270_legacy_config
	lw	a5,0(a5)
	.loc 1 2600 55
	lhu	a4,-30(s0)
	andi	a4,a4,3
	slli	a4,a4,16
	srli	a4,a4,16
	.loc 1 2600 44
	sh	a4,10(a5)
	j	.L118
.L116:
	.loc 1 2605 14
	li	a5,-8
	sb	a5,-17(s0)
.L118:
	.loc 1 2608 12
	lb	a5,-17(s0)
	.loc 1 2609 1
	mv	a0,a5
	lw	ra,76(sp)
	.cfi_restore 1
	lw	s0,72(sp)
	.cfi_restore 8
	addi	sp,sp,80
	.cfi_def_cfa_register 2
	jr	ra
	.cfi_endproc
.LFE11:
	.size	get_config_page_secondary, .-get_config_page_secondary
	.align	1
	.type	set_tap_config, @function
set_tap_config:
.LFB12:
	.loc 1 2615 1
	.cfi_startproc
	addi	sp,sp,-48
	.cfi_def_cfa_offset 48
	sw	ra,44(sp)
	sw	s0,40(sp)
	.cfi_offset 1, -4
	.cfi_offset 8, -8
	addi	s0,sp,48
	.cfi_def_cfa 8, 0
	sw	a0,-36(s0)
	sw	a1,-40(s0)
	.loc 1 2619 12
	lw	a1,-40(s0)
	lw	a0,-36(s0)
	call	set_config_page_primary
	mv	a5,a0
	sb	a5,-17(s0)
	.loc 1 2621 8
	lb	a5,-17(s0)
	bnez	a5,.L121
	.loc 1 2623 16
	lw	a1,-40(s0)
	lw	a0,-36(s0)
	call	set_config_page_secondary
	mv	a5,a0
	sb	a5,-17(s0)
.L121:
	.loc 1 2626 12
	lb	a5,-17(s0)
	.loc 1 2627 1
	mv	a0,a5
	lw	ra,44(sp)
	.cfi_restore 1
	lw	s0,40(sp)
	.cfi_restore 8
	addi	sp,sp,48
	.cfi_def_cfa_register 2
	jr	ra
	.cfi_endproc
.LFE12:
	.size	set_tap_config, .-set_tap_config
	.align	1
	.type	set_config_page_primary, @function
set_config_page_primary:
.LFB13:
	.loc 1 2634 1
	.cfi_startproc
	addi	sp,sp,-80
	.cfi_def_cfa_offset 80
	sw	ra,76(sp)
	sw	s0,72(sp)
	.cfi_offset 1, -4
	.cfi_offset 8, -8
	addi	s0,sp,80
	.cfi_def_cfa 8, 0
	sw	a0,-68(s0)
	sw	a1,-72(s0)
	.loc 1 2636 12
	sb	zero,-17(s0)
	.loc 1 2639 13
	sw	zero,-48(s0)
	sw	zero,-44(s0)
	sw	zero,-40(s0)
	sw	zero,-36(s0)
	.loc 1 2642 13
	sb	zero,-19(s0)
	.loc 1 2645 13
	sb	zero,-18(s0)
	.loc 1 2651 22
	lw	a5,-72(s0)
	sw	a5,-24(s0)
	.loc 1 2654 32
	sb	zero,-52(s0)
	sb	zero,-51(s0)
	sb	zero,-50(s0)
	.loc 1 2657 15
	addi	a5,s0,-48
	sw	a5,-28(s0)
	.loc 1 2660 26
	lla	a5,bmi270_legacy_config
	lw	a4,-68(s0)
	sw	a4,0(a5)
	.loc 1 2663 18
	addi	a5,s0,-52
	lw	a2,-24(s0)
	li	a1,30
	mv	a0,a5
	call	bmi2_extract_input_feat_config
	mv	a5,a0
	sb	a5,-29(s0)
	.loc 1 2665 8
	lbu	a4,-29(s0)
	li	a5,1
	bne	a4,a5,.L124
	.loc 1 2668 16
	lbu	a5,-51(s0)
	addi	a4,s0,-48
	lw	a2,-24(s0)
	mv	a1,a4
	mv	a0,a5
	call	bmi2_get_feat_config
	mv	a5,a0
	sb	a5,-17(s0)
	.loc 1 2669 12
	lb	a5,-17(s0)
	bnez	a5,.L128
	.loc 1 2672 17
	lbu	a5,-50(s0)
	sb	a5,-19(s0)
	.loc 1 2675 17
	lbu	a5,-19(s0)
	srli	a5,a5,1
	sb	a5,-19(s0)
	.loc 1 2678 42
	lbu	a5,-19(s0)
	slli	a5,a5,1
	lw	a4,-28(s0)
	add	a5,a4,a5
	.loc 1 2678 33
	lhu	a5,0(a5)
	slli	a5,a5,16
	srai	a5,a5,16
	.loc 1 2678 49
	andi	a5,a5,-9
	slli	a4,a5,16
	srai	a4,a4,16
	.loc 1 2678 84
	lla	a5,bmi270_legacy_config
	lw	a5,0(a5)
	lhu	a5,0(a5)
	.loc 1 2678 98
	slli	a5,a5,3
	.loc 1 2678 107
	slli	a5,a5,16
	srai	a5,a5,16
	andi	a5,a5,8
	slli	a5,a5,16
	srai	a5,a5,16
	.loc 1 2678 60
	or	a5,a4,a5
	slli	a3,a5,16
	srai	a3,a3,16
	.loc 1 2678 22
	lbu	a5,-19(s0)
	slli	a5,a5,1
	lw	a4,-28(s0)
	add	a5,a4,a5
	.loc 1 2678 60
	slli	a4,a3,16
	srli	a4,a4,16
	.loc 1 2678 29
	sh	a4,0(a5)
	.loc 1 2681 17
	li	a5,2
	sb	a5,-19(s0)
	.loc 1 2684 51
	lla	a5,bmi270_legacy_config
	lw	a4,0(a5)
	.loc 1 2684 22
	lbu	a5,-19(s0)
	slli	a5,a5,1
	lw	a3,-28(s0)
	add	a5,a3,a5
	.loc 1 2684 51
	lhu	a4,2(a4)
	.loc 1 2684 29
	sh	a4,0(a5)
	.loc 1 2687 17
	li	a5,3
	sb	a5,-19(s0)
	.loc 1 2690 51
	lla	a5,bmi270_legacy_config
	lw	a4,0(a5)
	.loc 1 2690 22
	lbu	a5,-19(s0)
	slli	a5,a5,1
	lw	a3,-28(s0)
	add	a5,a3,a5
	.loc 1 2690 51
	lhu	a4,4(a4)
	.loc 1 2690 29
	sh	a4,0(a5)
	.loc 1 2693 17
	li	a5,7
	sb	a5,-19(s0)
	.loc 1 2696 51
	lla	a5,bmi270_legacy_config
	lw	a4,0(a5)
	.loc 1 2696 22
	lbu	a5,-19(s0)
	slli	a5,a5,1
	lw	a3,-28(s0)
	add	a5,a3,a5
	.loc 1 2696 51
	lhu	a4,6(a4)
	.loc 1 2696 29
	sh	a4,0(a5)
	.loc 1 2699 16
	lbu	a5,-19(s0)
	addi	a5,a5,1
	sb	a5,-19(s0)
	.loc 1 2702 19
	lbu	a5,-19(s0)
	slli	a5,a5,1
	andi	a4,a5,0xff
	.loc 1 2702 50
	lbu	a5,-50(s0)
	.loc 1 2702 17
	sub	a5,a4,a5
	sb	a5,-19(s0)
	.loc 1 2705 24
	sb	zero,-18(s0)
	.loc 1 2705 13
	j	.L126
.L127:
	.loc 1 2707 95 discriminator 3
	lbu	a5,-50(s0)
	mv	a4,a5
	.loc 1 2707 107 discriminator 3
	lbu	a5,-18(s0)
	add	a5,a4,a5
	lw	a4,-28(s0)
	add	a4,a4,a5
	.loc 1 2707 39 discriminator 3
	lbu	a5,-50(s0)
	mv	a3,a5
	.loc 1 2707 51 discriminator 3
	lbu	a5,-18(s0)
	add	a5,a3,a5
	.loc 1 2707 62 discriminator 3
	lbu	a4,0(a4)
	.loc 1 2707 60 discriminator 3
	addi	a3,s0,-16
	add	a5,a3,a5
	sb	a4,-32(a5)
	.loc 1 2705 48 discriminator 3
	lbu	a5,-18(s0)
	addi	a5,a5,1
	sb	a5,-18(s0)
.L126:
	.loc 1 2705 13 discriminator 1
	lbu	a4,-18(s0)
	lbu	a5,-19(s0)
	bleu	a4,a5,.L127
	.loc 1 2711 20
	addi	a5,s0,-48
	lw	a3,-24(s0)
	li	a2,16
	mv	a1,a5
	li	a0,48
	call	bmi2_set_regs
	mv	a5,a0
	sb	a5,-17(s0)
	j	.L128
.L124:
	.loc 1 2716 14
	li	a5,-8
	sb	a5,-17(s0)
.L128:
	.loc 1 2719 12
	lb	a5,-17(s0)
	.loc 1 2720 1
	mv	a0,a5
	lw	ra,76(sp)
	.cfi_restore 1
	lw	s0,72(sp)
	.cfi_restore 8
	addi	sp,sp,80
	.cfi_def_cfa_register 2
	jr	ra
	.cfi_endproc
.LFE13:
	.size	set_config_page_primary, .-set_config_page_primary
	.align	1
	.type	set_config_page_secondary, @function
set_config_page_secondary:
.LFB14:
	.loc 1 2727 1
	.cfi_startproc
	addi	sp,sp,-80
	.cfi_def_cfa_offset 80
	sw	ra,76(sp)
	sw	s0,72(sp)
	.cfi_offset 1, -4
	.cfi_offset 8, -8
	addi	s0,sp,80
	.cfi_def_cfa 8, 0
	sw	a0,-68(s0)
	sw	a1,-72(s0)
	.loc 1 2729 12
	sb	zero,-17(s0)
	.loc 1 2732 13
	sw	zero,-48(s0)
	sw	zero,-44(s0)
	sw	zero,-40(s0)
	sw	zero,-36(s0)
	.loc 1 2735 13
	sb	zero,-19(s0)
	.loc 1 2738 13
	sb	zero,-18(s0)
	.loc 1 2744 22
	lw	a5,-72(s0)
	sw	a5,-24(s0)
	.loc 1 2747 32
	sb	zero,-52(s0)
	sb	zero,-51(s0)
	sb	zero,-50(s0)
	.loc 1 2750 15
	addi	a5,s0,-48
	sw	a5,-28(s0)
	.loc 1 2753 26
	lla	a5,bmi270_legacy_config
	lw	a4,-68(s0)
	sw	a4,0(a5)
	.loc 1 2756 18
	addi	a5,s0,-52
	lw	a2,-24(s0)
	li	a1,31
	mv	a0,a5
	call	bmi2_extract_input_feat_config
	mv	a5,a0
	sb	a5,-29(s0)
	.loc 1 2758 8
	lbu	a4,-29(s0)
	li	a5,1
	bne	a4,a5,.L131
	.loc 1 2761 16
	lbu	a5,-51(s0)
	addi	a4,s0,-48
	lw	a2,-24(s0)
	mv	a1,a4
	mv	a0,a5
	call	bmi2_get_feat_config
	mv	a5,a0
	sb	a5,-17(s0)
	.loc 1 2762 12
	lb	a5,-17(s0)
	bnez	a5,.L135
	.loc 1 2765 17
	lbu	a5,-50(s0)
	sb	a5,-19(s0)
	.loc 1 2768 17
	lbu	a5,-19(s0)
	srli	a5,a5,1
	sb	a5,-19(s0)
	.loc 1 2771 51
	lla	a5,bmi270_legacy_config
	lw	a4,0(a5)
	.loc 1 2771 22
	lbu	a5,-19(s0)
	slli	a5,a5,1
	lw	a3,-28(s0)
	add	a5,a3,a5
	.loc 1 2771 51
	lhu	a4,8(a4)
	.loc 1 2771 29
	sh	a4,0(a5)
	.loc 1 2774 17
	li	a5,2
	sb	a5,-19(s0)
	.loc 1 2777 42
	lbu	a5,-19(s0)
	slli	a5,a5,1
	lw	a4,-28(s0)
	add	a5,a4,a5
	.loc 1 2777 33
	lhu	a5,0(a5)
	slli	a5,a5,16
	srai	a5,a5,16
	.loc 1 2777 49
	andi	a5,a5,-4
	slli	a4,a5,16
	srai	a4,a4,16
	.loc 1 2777 83
	lla	a5,bmi270_legacy_config
	lw	a5,0(a5)
	lhu	a5,10(a5)
	slli	a5,a5,16
	srai	a5,a5,16
	.loc 1 2777 94
	andi	a5,a5,3
	slli	a5,a5,16
	srai	a5,a5,16
	.loc 1 2777 60
	or	a5,a4,a5
	slli	a3,a5,16
	srai	a3,a3,16
	.loc 1 2777 22
	lbu	a5,-19(s0)
	slli	a5,a5,1
	lw	a4,-28(s0)
	add	a5,a4,a5
	.loc 1 2777 60
	slli	a4,a3,16
	srli	a4,a4,16
	.loc 1 2777 29
	sh	a4,0(a5)
	.loc 1 2780 16
	lbu	a5,-19(s0)
	addi	a5,a5,1
	sb	a5,-19(s0)
	.loc 1 2783 19
	lbu	a5,-19(s0)
	slli	a5,a5,1
	andi	a4,a5,0xff
	.loc 1 2783 50
	lbu	a5,-50(s0)
	.loc 1 2783 17
	sub	a5,a4,a5
	sb	a5,-19(s0)
	.loc 1 2786 24
	sb	zero,-18(s0)
	.loc 1 2786 13
	j	.L133
.L134:
	.loc 1 2788 95 discriminator 3
	lbu	a5,-50(s0)
	mv	a4,a5
	.loc 1 2788 107 discriminator 3
	lbu	a5,-18(s0)
	add	a5,a4,a5
	lw	a4,-28(s0)
	add	a4,a4,a5
	.loc 1 2788 39 discriminator 3
	lbu	a5,-50(s0)
	mv	a3,a5
	.loc 1 2788 51 discriminator 3
	lbu	a5,-18(s0)
	add	a5,a3,a5
	.loc 1 2788 62 discriminator 3
	lbu	a4,0(a4)
	.loc 1 2788 60 discriminator 3
	addi	a3,s0,-16
	add	a5,a3,a5
	sb	a4,-32(a5)
	.loc 1 2786 47 discriminator 3
	lbu	a5,-18(s0)
	addi	a5,a5,1
	sb	a5,-18(s0)
.L133:
	.loc 1 2786 13 discriminator 1
	lbu	a4,-18(s0)
	lbu	a5,-19(s0)
	bltu	a4,a5,.L134
	.loc 1 2792 20
	addi	a5,s0,-48
	lw	a3,-24(s0)
	li	a2,16
	mv	a1,a5
	li	a0,48
	call	bmi2_set_regs
	mv	a5,a0
	sb	a5,-17(s0)
	j	.L135
.L131:
	.loc 1 2797 14
	li	a5,-8
	sb	a5,-17(s0)
.L135:
	.loc 1 2800 12
	lb	a5,-17(s0)
	.loc 1 2801 1
	mv	a0,a5
	lw	ra,76(sp)
	.cfi_restore 1
	lw	s0,72(sp)
	.cfi_restore 8
	addi	sp,sp,80
	.cfi_def_cfa_register 2
	jr	ra
	.cfi_endproc
.LFE14:
	.size	set_config_page_secondary, .-set_config_page_secondary
	.align	1
	.type	null_ptr_check, @function
null_ptr_check:
.LFB15:
	.loc 1 2808 1
	.cfi_startproc
	addi	sp,sp,-48
	.cfi_def_cfa_offset 48
	sw	s0,44(sp)
	.cfi_offset 8, -4
	addi	s0,sp,48
	.cfi_def_cfa 8, 0
	sw	a0,-36(s0)
	.loc 1 2810 12
	sb	zero,-17(s0)
	.loc 1 2812 8
	lw	a5,-36(s0)
	beqz	a5,.L138
	.loc 1 2812 29 discriminator 1
	lw	a5,-36(s0)
	lw	a5,64(a5)
	.loc 1 2812 22 discriminator 1
	beqz	a5,.L138
	.loc 1 2812 52 discriminator 2
	lw	a5,-36(s0)
	lw	a5,68(a5)
	.loc 1 2812 45 discriminator 2
	beqz	a5,.L138
	.loc 1 2812 76 discriminator 3
	lw	a5,-36(s0)
	lw	a5,72(a5)
	.loc 1 2812 69 discriminator 3
	bnez	a5,.L139
.L138:
	.loc 1 2815 14
	li	a5,-1
	sb	a5,-17(s0)
.L139:
	.loc 1 2818 12
	lb	a5,-17(s0)
	.loc 1 2819 1
	mv	a0,a5
	lw	s0,44(sp)
	.cfi_restore 8
	addi	sp,sp,48
	.cfi_def_cfa_register 2
	jr	ra
	.cfi_endproc
.LFE15:
	.size	null_ptr_check, .-null_ptr_check
	.align	1
	.type	select_sensor, @function
select_sensor:
.LFB16:
	.loc 1 2826 1
	.cfi_startproc
	addi	sp,sp,-80
	.cfi_def_cfa_offset 80
	sw	ra,76(sp)
	sw	s0,72(sp)
	sw	s2,68(sp)
	sw	s3,64(sp)
	sw	s4,60(sp)
	sw	s5,56(sp)
	sw	s6,52(sp)
	sw	s7,48(sp)
	sw	s8,44(sp)
	sw	s9,40(sp)
	.cfi_offset 1, -4
	.cfi_offset 8, -8
	.cfi_offset 18, -12
	.cfi_offset 19, -16
	.cfi_offset 20, -20
	.cfi_offset 21, -24
	.cfi_offset 22, -28
	.cfi_offset 23, -32
	.cfi_offset 24, -36
	.cfi_offset 25, -40
	addi	s0,sp,80
	.cfi_def_cfa 8, 0
	sw	a0,-68(s0)
	mv	a5,a1
	sw	a2,-76(s0)
	sb	a5,-69(s0)
	.loc 1 2828 12
	sb	zero,-49(s0)
	.loc 1 2833 16
	sb	zero,-50(s0)
	.loc 1 2833 5
	j	.L142
.L147:
	.loc 1 2835 22
	lbu	a5,-50(s0)
	lw	a4,-68(s0)
	add	a5,a4,a5
	lbu	a5,0(a5)
	.loc 1 2835 12
	bnez	a5,.L143
	.loc 1 2837 25
	lw	a5,-76(s0)
	lw	a6,4(a5)
	lw	a5,0(a5)
	ori	s2,a5,1
	ori	s3,a6,0
	lw	a5,-76(s0)
	sw	s2,0(a5)
	sw	s3,4(a5)
	.loc 1 2838 18
	lbu	a5,-50(s0)
	addi	a5,a5,1
	sb	a5,-50(s0)
.L143:
	.loc 1 2841 22
	lbu	a5,-50(s0)
	lw	a4,-68(s0)
	add	a5,a4,a5
	lbu	a4,0(a5)
	.loc 1 2841 12
	li	a5,1
	bne	a4,a5,.L144
	.loc 1 2843 25
	lw	a5,-76(s0)
	lw	a6,4(a5)
	lw	a5,0(a5)
	ori	s4,a5,2
	ori	s5,a6,0
	lw	a5,-76(s0)
	sw	s4,0(a5)
	sw	s5,4(a5)
	.loc 1 2844 18
	lbu	a5,-50(s0)
	addi	a5,a5,1
	sb	a5,-50(s0)
.L144:
	.loc 1 2847 22
	lbu	a5,-50(s0)
	lw	a4,-68(s0)
	add	a5,a4,a5
	lbu	a4,0(a5)
	.loc 1 2847 12
	li	a5,2
	bne	a4,a5,.L145
	.loc 1 2849 25
	lw	a5,-76(s0)
	lw	a6,4(a5)
	lw	a5,0(a5)
	ori	s6,a5,4
	ori	s7,a6,0
	lw	a5,-76(s0)
	sw	s6,0(a5)
	sw	s7,4(a5)
	.loc 1 2850 18
	lbu	a5,-50(s0)
	addi	a5,a5,1
	sb	a5,-50(s0)
.L145:
	.loc 1 2853 22
	lbu	a5,-50(s0)
	lw	a4,-68(s0)
	add	a5,a4,a5
	lbu	a4,0(a5)
	.loc 1 2853 12
	li	a5,32
	bne	a4,a5,.L146
	.loc 1 2855 25
	lw	a5,-76(s0)
	lw	a6,4(a5)
	lw	a5,0(a5)
	ori	s8,a5,0
	ori	s9,a6,1
	lw	a5,-76(s0)
	sw	s8,0(a5)
	sw	s9,4(a5)
	.loc 1 2856 18
	lbu	a5,-50(s0)
	addi	a5,a5,1
	sb	a5,-50(s0)
.L146:
	.loc 1 2859 12
	lbu	a4,-50(s0)
	lbu	a5,-69(s0)
	bgeu	a4,a5,.L142
	.loc 1 2861 20
	lbu	a5,-50(s0)
	lw	a2,-76(s0)
	mv	a1,a5
	lw	a0,-68(s0)
	call	sens_select
	mv	a5,a0
	sb	a5,-49(s0)
	.loc 1 2862 18
	lbu	a5,-50(s0)
	addi	a5,a5,1
	sb	a5,-50(s0)
.L142:
	.loc 1 2833 5 discriminator 1
	lbu	a4,-50(s0)
	lbu	a5,-69(s0)
	bltu	a4,a5,.L147
	.loc 1 2866 12
	lb	a5,-49(s0)
	.loc 1 2867 1
	mv	a0,a5
	lw	ra,76(sp)
	.cfi_restore 1
	lw	s0,72(sp)
	.cfi_restore 8
	lw	s2,68(sp)
	.cfi_restore 18
	lw	s3,64(sp)
	.cfi_restore 19
	lw	s4,60(sp)
	.cfi_restore 20
	lw	s5,56(sp)
	.cfi_restore 21
	lw	s6,52(sp)
	.cfi_restore 22
	lw	s7,48(sp)
	.cfi_restore 23
	lw	s8,44(sp)
	.cfi_restore 24
	lw	s9,40(sp)
	.cfi_restore 25
	addi	sp,sp,80
	.cfi_def_cfa_register 2
	jr	ra
	.cfi_endproc
.LFE16:
	.size	select_sensor, .-select_sensor
	.align	1
	.type	sensor_enable, @function
sensor_enable:
.LFB17:
	.loc 1 2873 1
	.cfi_startproc
	addi	sp,sp,-48
	.cfi_def_cfa_offset 48
	sw	ra,44(sp)
	sw	s0,40(sp)
	sw	s2,36(sp)
	sw	s3,32(sp)
	.cfi_offset 1, -4
	.cfi_offset 8, -8
	.cfi_offset 18, -12
	.cfi_offset 19, -16
	addi	s0,sp,48
	.cfi_def_cfa 8, 0
	sw	a0,-40(s0)
	sw	a1,-36(s0)
	sw	a2,-44(s0)
	.loc 1 2878 13
	sb	zero,-18(s0)
	.loc 1 2880 12
	lw	a2,-44(s0)
	lw	a0,-40(s0)
	lw	a1,-36(s0)
	call	enable_main_sensors
	mv	a5,a0
	sb	a5,-17(s0)
	.loc 1 2882 8
	lb	a5,-17(s0)
	bnez	a5,.L150
	.loc 1 2882 36 discriminator 1
	lw	a5,-40(s0)
	andi	s2,a5,-8
	lw	a5,-36(s0)
	andi	s3,a5,-2
	.loc 1 2882 21 discriminator 1
	mv	a5,s2
	or	a5,a5,s3
	beqz	a5,.L150
	.loc 1 2885 18 discriminator 1
	lw	a5,-44(s0)
	lbu	a5,79(a5)
	sb	a5,-18(s0)
	.loc 1 2886 12 discriminator 1
	lbu	a4,-18(s0)
	li	a5,1
	bne	a4,a5,.L152
	.loc 1 2889 20
	lw	a1,-44(s0)
	li	a0,0
	call	bmi2_set_adv_power_save
	mv	a5,a0
	sb	a5,-17(s0)
.L152:
	.loc 1 2892 12
	lb	a5,-17(s0)
	bnez	a5,.L150
	.loc 1 2894 20
	lw	a2,-44(s0)
	lw	a0,-40(s0)
	lw	a1,-36(s0)
	call	enable_sensor_features
	mv	a5,a0
	sb	a5,-17(s0)
	.loc 1 2899 16
	lbu	a4,-18(s0)
	li	a5,1
	bne	a4,a5,.L150
	.loc 1 2899 33 discriminator 1
	lb	a5,-17(s0)
	bnez	a5,.L150
	.loc 1 2901 24
	lw	a1,-44(s0)
	li	a0,1
	call	bmi2_set_adv_power_save
	mv	a5,a0
	sb	a5,-17(s0)
.L150:
	.loc 1 2906 12
	lb	a5,-17(s0)
	.loc 1 2907 1
	mv	a0,a5
	lw	ra,44(sp)
	.cfi_restore 1
	lw	s0,40(sp)
	.cfi_restore 8
	lw	s2,36(sp)
	.cfi_restore 18
	lw	s3,32(sp)
	.cfi_restore 19
	addi	sp,sp,48
	.cfi_def_cfa_register 2
	jr	ra
	.cfi_endproc
.LFE17:
	.size	sensor_enable, .-sensor_enable
	.align	1
	.type	sensor_disable, @function
sensor_disable:
.LFB18:
	.loc 1 2913 1
	.cfi_startproc
	addi	sp,sp,-48
	.cfi_def_cfa_offset 48
	sw	ra,44(sp)
	sw	s0,40(sp)
	sw	s2,36(sp)
	sw	s3,32(sp)
	.cfi_offset 1, -4
	.cfi_offset 8, -8
	.cfi_offset 18, -12
	.cfi_offset 19, -16
	addi	s0,sp,48
	.cfi_def_cfa 8, 0
	sw	a0,-40(s0)
	sw	a1,-36(s0)
	sw	a2,-44(s0)
	.loc 1 2918 13
	sb	zero,-18(s0)
	.loc 1 2920 12
	lw	a2,-44(s0)
	lw	a0,-40(s0)
	lw	a1,-36(s0)
	call	disable_main_sensors
	mv	a5,a0
	sb	a5,-17(s0)
	.loc 1 2922 8
	lb	a5,-17(s0)
	bnez	a5,.L155
	.loc 1 2922 36 discriminator 1
	lw	a5,-40(s0)
	andi	s2,a5,-8
	lw	a5,-36(s0)
	andi	s3,a5,-2
	.loc 1 2922 21 discriminator 1
	mv	a5,s2
	or	a5,a5,s3
	beqz	a5,.L155
	.loc 1 2925 18 discriminator 1
	lw	a5,-44(s0)
	lbu	a5,79(a5)
	sb	a5,-18(s0)
	.loc 1 2926 12 discriminator 1
	lbu	a4,-18(s0)
	li	a5,1
	bne	a4,a5,.L157
	.loc 1 2929 20
	lw	a1,-44(s0)
	li	a0,0
	call	bmi2_set_adv_power_save
	mv	a5,a0
	sb	a5,-17(s0)
.L157:
	.loc 1 2932 12
	lb	a5,-17(s0)
	bnez	a5,.L155
	.loc 1 2934 20
	lw	a2,-44(s0)
	lw	a0,-40(s0)
	lw	a1,-36(s0)
	call	disable_sensor_features
	mv	a5,a0
	sb	a5,-17(s0)
	.loc 1 2938 16
	lbu	a4,-18(s0)
	li	a5,1
	bne	a4,a5,.L155
	.loc 1 2938 33 discriminator 1
	lb	a5,-17(s0)
	bnez	a5,.L155
	.loc 1 2940 24
	lw	a1,-44(s0)
	li	a0,1
	call	bmi2_set_adv_power_save
	mv	a5,a0
	sb	a5,-17(s0)
.L155:
	.loc 1 2945 12
	lb	a5,-17(s0)
	.loc 1 2946 1
	mv	a0,a5
	lw	ra,44(sp)
	.cfi_restore 1
	lw	s0,40(sp)
	.cfi_restore 8
	lw	s2,36(sp)
	.cfi_restore 18
	lw	s3,32(sp)
	.cfi_restore 19
	addi	sp,sp,48
	.cfi_def_cfa_register 2
	jr	ra
	.cfi_endproc
.LFE18:
	.size	sensor_disable, .-sensor_disable
	.align	1
	.type	set_any_motion, @function
set_any_motion:
.LFB19:
	.loc 1 2952 1
	.cfi_startproc
	addi	sp,sp,-80
	.cfi_def_cfa_offset 80
	sw	ra,76(sp)
	sw	s0,72(sp)
	sw	s2,68(sp)
	sw	s3,64(sp)
	sw	s4,60(sp)
	sw	s5,56(sp)
	.cfi_offset 1, -4
	.cfi_offset 8, -8
	.cfi_offset 18, -12
	.cfi_offset 19, -16
	.cfi_offset 20, -20
	.cfi_offset 21, -24
	addi	s0,sp,80
	.cfi_def_cfa 8, 0
	mv	a5,a0
	sw	a1,-72(s0)
	sb	a5,-65(s0)
	.loc 1 2957 13
	sw	zero,-52(s0)
	sw	zero,-48(s0)
	sw	zero,-44(s0)
	sw	zero,-40(s0)
	.loc 1 2960 13
	sb	zero,-34(s0)
	.loc 1 2966 32
	sb	zero,-56(s0)
	sb	zero,-55(s0)
	sb	zero,-54(s0)
	.loc 1 2969 18
	addi	a5,s0,-56
	lw	a2,-72(s0)
	li	a1,4
	mv	a0,a5
	call	bmi2_extract_input_feat_config
	mv	a5,a0
	sb	a5,-35(s0)
	.loc 1 2970 8
	lbu	a5,-35(s0)
	beqz	a5,.L160
	.loc 1 2973 16
	lbu	a5,-55(s0)
	addi	a4,s0,-52
	lw	a2,-72(s0)
	mv	a1,a4
	mv	a0,a5
	call	bmi2_get_feat_config
	mv	a5,a0
	sb	a5,-33(s0)
	.loc 1 2974 12
	lb	a5,-33(s0)
	bnez	a5,.L163
	.loc 1 2977 33
	lbu	a5,-54(s0)
	.loc 1 2977 17
	addi	a5,a5,3
	sb	a5,-34(s0)
	.loc 1 2980 45
	lbu	a5,-34(s0)
	addi	a4,s0,-32
	add	a5,a4,a5
	lbu	a5,-20(a5)
	slli	a5,a5,24
	srai	a5,a5,24
	.loc 1 2980 51
	andi	a5,a5,127
	slli	a4,a5,24
	srai	a4,a4,24
	.loc 1 2980 73
	lbu	a5,-65(s0)
	slli	a5,a5,7
	.loc 1 2980 62
	slli	a5,a5,24
	srai	a5,a5,24
	or	a5,a4,a5
	slli	a4,a5,24
	srai	a4,a4,24
	.loc 1 2980 24
	lbu	a5,-34(s0)
	.loc 1 2980 62
	andi	a4,a4,0xff
	.loc 1 2980 30
	addi	a3,s0,-32
	add	a5,a3,a5
	sb	a4,-20(a5)
	.loc 1 2983 20
	addi	a5,s0,-52
	lw	a3,-72(s0)
	li	a2,16
	mv	a1,a5
	li	a0,48
	call	bmi2_set_regs
	mv	a5,a0
	sb	a5,-33(s0)
	.loc 1 2985 16
	lb	a5,-33(s0)
	bnez	a5,.L162
	.loc 1 2985 29 discriminator 1
	lbu	a4,-65(s0)
	li	a5,1
	bne	a4,a5,.L162
	.loc 1 2987 35
	lw	a5,-72(s0)
	lw	a6,60(a5)
	lw	a5,56(a5)
	ori	s4,a5,16
	ori	s5,a6,0
	lw	a5,-72(s0)
	sw	s4,56(a5)
	sw	s5,60(a5)
	j	.L163
.L162:
	.loc 1 2991 35
	lw	a5,-72(s0)
	lw	a6,60(a5)
	lw	a5,56(a5)
	andi	s2,a5,-17
	andi	s3,a6,-1
	lw	a5,-72(s0)
	sw	s2,56(a5)
	sw	s3,60(a5)
	j	.L163
.L160:
	.loc 1 2997 14
	li	a5,-8
	sb	a5,-33(s0)
.L163:
	.loc 1 3000 12
	lb	a5,-33(s0)
	.loc 1 3001 1
	mv	a0,a5
	lw	ra,76(sp)
	.cfi_restore 1
	lw	s0,72(sp)
	.cfi_restore 8
	lw	s2,68(sp)
	.cfi_restore 18
	lw	s3,64(sp)
	.cfi_restore 19
	lw	s4,60(sp)
	.cfi_restore 20
	lw	s5,56(sp)
	.cfi_restore 21
	addi	sp,sp,80
	.cfi_def_cfa_register 2
	jr	ra
	.cfi_endproc
.LFE19:
	.size	set_any_motion, .-set_any_motion
	.align	1
	.type	set_no_motion, @function
set_no_motion:
.LFB20:
	.loc 1 3007 1
	.cfi_startproc
	addi	sp,sp,-80
	.cfi_def_cfa_offset 80
	sw	ra,76(sp)
	sw	s0,72(sp)
	sw	s2,68(sp)
	sw	s3,64(sp)
	sw	s4,60(sp)
	sw	s5,56(sp)
	.cfi_offset 1, -4
	.cfi_offset 8, -8
	.cfi_offset 18, -12
	.cfi_offset 19, -16
	.cfi_offset 20, -20
	.cfi_offset 21, -24
	addi	s0,sp,80
	.cfi_def_cfa 8, 0
	mv	a5,a0
	sw	a1,-72(s0)
	sb	a5,-65(s0)
	.loc 1 3012 13
	sw	zero,-52(s0)
	sw	zero,-48(s0)
	sw	zero,-44(s0)
	sw	zero,-40(s0)
	.loc 1 3015 13
	sb	zero,-34(s0)
	.loc 1 3021 32
	sb	zero,-56(s0)
	sb	zero,-55(s0)
	sb	zero,-54(s0)
	.loc 1 3024 18
	addi	a5,s0,-56
	lw	a2,-72(s0)
	li	a1,5
	mv	a0,a5
	call	bmi2_extract_input_feat_config
	mv	a5,a0
	sb	a5,-35(s0)
	.loc 1 3025 8
	lbu	a5,-35(s0)
	beqz	a5,.L166
	.loc 1 3028 16
	lbu	a5,-55(s0)
	addi	a4,s0,-52
	lw	a2,-72(s0)
	mv	a1,a4
	mv	a0,a5
	call	bmi2_get_feat_config
	mv	a5,a0
	sb	a5,-33(s0)
	.loc 1 3029 12
	lb	a5,-33(s0)
	bnez	a5,.L169
	.loc 1 3032 32
	lbu	a5,-54(s0)
	.loc 1 3032 17
	addi	a5,a5,3
	sb	a5,-34(s0)
	.loc 1 3035 45
	lbu	a5,-34(s0)
	addi	a4,s0,-32
	add	a5,a4,a5
	lbu	a5,-20(a5)
	slli	a5,a5,24
	srai	a5,a5,24
	.loc 1 3035 51
	andi	a5,a5,127
	slli	a4,a5,24
	srai	a4,a4,24
	.loc 1 3035 73
	lbu	a5,-65(s0)
	slli	a5,a5,7
	.loc 1 3035 62
	slli	a5,a5,24
	srai	a5,a5,24
	or	a5,a4,a5
	slli	a4,a5,24
	srai	a4,a4,24
	.loc 1 3035 24
	lbu	a5,-34(s0)
	.loc 1 3035 62
	andi	a4,a4,0xff
	.loc 1 3035 30
	addi	a3,s0,-32
	add	a5,a3,a5
	sb	a4,-20(a5)
	.loc 1 3038 20
	addi	a5,s0,-52
	lw	a3,-72(s0)
	li	a2,16
	mv	a1,a5
	li	a0,48
	call	bmi2_set_regs
	mv	a5,a0
	sb	a5,-33(s0)
	.loc 1 3040 16
	lb	a5,-33(s0)
	bnez	a5,.L168
	.loc 1 3040 29 discriminator 1
	lbu	a4,-65(s0)
	li	a5,1
	bne	a4,a5,.L168
	.loc 1 3042 35
	lw	a5,-72(s0)
	lw	a6,60(a5)
	lw	a5,56(a5)
	ori	s4,a5,32
	ori	s5,a6,0
	lw	a5,-72(s0)
	sw	s4,56(a5)
	sw	s5,60(a5)
	j	.L169
.L168:
	.loc 1 3046 35
	lw	a5,-72(s0)
	lw	a6,60(a5)
	lw	a5,56(a5)
	andi	s2,a5,-33
	andi	s3,a6,-1
	lw	a5,-72(s0)
	sw	s2,56(a5)
	sw	s3,60(a5)
	j	.L169
.L166:
	.loc 1 3052 14
	li	a5,-8
	sb	a5,-33(s0)
.L169:
	.loc 1 3055 12
	lb	a5,-33(s0)
	.loc 1 3056 1
	mv	a0,a5
	lw	ra,76(sp)
	.cfi_restore 1
	lw	s0,72(sp)
	.cfi_restore 8
	lw	s2,68(sp)
	.cfi_restore 18
	lw	s3,64(sp)
	.cfi_restore 19
	lw	s4,60(sp)
	.cfi_restore 20
	lw	s5,56(sp)
	.cfi_restore 21
	addi	sp,sp,80
	.cfi_def_cfa_register 2
	jr	ra
	.cfi_endproc
.LFE20:
	.size	set_no_motion, .-set_no_motion
	.align	1
	.type	set_step_detector, @function
set_step_detector:
.LFB21:
	.loc 1 3062 1
	.cfi_startproc
	addi	sp,sp,-80
	.cfi_def_cfa_offset 80
	sw	ra,76(sp)
	sw	s0,72(sp)
	sw	s2,68(sp)
	sw	s3,64(sp)
	sw	s4,60(sp)
	sw	s5,56(sp)
	.cfi_offset 1, -4
	.cfi_offset 8, -8
	.cfi_offset 18, -12
	.cfi_offset 19, -16
	.cfi_offset 20, -20
	.cfi_offset 21, -24
	addi	s0,sp,80
	.cfi_def_cfa 8, 0
	mv	a5,a0
	sw	a1,-72(s0)
	sb	a5,-65(s0)
	.loc 1 3067 13
	sw	zero,-52(s0)
	sw	zero,-48(s0)
	sw	zero,-44(s0)
	sw	zero,-40(s0)
	.loc 1 3070 13
	sb	zero,-34(s0)
	.loc 1 3076 32
	sb	zero,-56(s0)
	sb	zero,-55(s0)
	sb	zero,-54(s0)
	.loc 1 3079 18
	addi	a5,s0,-56
	lw	a2,-72(s0)
	li	a1,6
	mv	a0,a5
	call	bmi2_extract_input_feat_config
	mv	a5,a0
	sb	a5,-35(s0)
	.loc 1 3080 8
	lbu	a5,-35(s0)
	beqz	a5,.L172
	.loc 1 3083 16
	lbu	a5,-55(s0)
	addi	a4,s0,-52
	lw	a2,-72(s0)
	mv	a1,a4
	mv	a0,a5
	call	bmi2_get_feat_config
	mv	a5,a0
	sb	a5,-33(s0)
	.loc 1 3084 12
	lb	a5,-33(s0)
	bnez	a5,.L175
	.loc 1 3087 34
	lbu	a5,-54(s0)
	.loc 1 3087 17
	addi	a5,a5,1
	sb	a5,-34(s0)
	.loc 1 3090 45
	lbu	a5,-34(s0)
	addi	a4,s0,-32
	add	a5,a4,a5
	lbu	a5,-20(a5)
	slli	a5,a5,24
	srai	a5,a5,24
	.loc 1 3090 51
	andi	a5,a5,-9
	slli	a4,a5,24
	srai	a4,a4,24
	.loc 1 3090 73
	lbu	a5,-65(s0)
	slli	a5,a5,3
	.loc 1 3090 82
	slli	a5,a5,24
	srai	a5,a5,24
	andi	a5,a5,8
	slli	a5,a5,24
	srai	a5,a5,24
	.loc 1 3090 62
	or	a5,a4,a5
	slli	a4,a5,24
	srai	a4,a4,24
	.loc 1 3090 24
	lbu	a5,-34(s0)
	.loc 1 3090 62
	andi	a4,a4,0xff
	.loc 1 3090 30
	addi	a3,s0,-32
	add	a5,a3,a5
	sb	a4,-20(a5)
	.loc 1 3093 20
	addi	a5,s0,-52
	lw	a3,-72(s0)
	li	a2,16
	mv	a1,a5
	li	a0,48
	call	bmi2_set_regs
	mv	a5,a0
	sb	a5,-33(s0)
	.loc 1 3095 16
	lb	a5,-33(s0)
	bnez	a5,.L174
	.loc 1 3095 29 discriminator 1
	lbu	a4,-65(s0)
	li	a5,1
	bne	a4,a5,.L174
	.loc 1 3097 35
	lw	a5,-72(s0)
	lw	a6,60(a5)
	lw	a5,56(a5)
	ori	s4,a5,64
	ori	s5,a6,0
	lw	a5,-72(s0)
	sw	s4,56(a5)
	sw	s5,60(a5)
	j	.L175
.L174:
	.loc 1 3101 35
	lw	a5,-72(s0)
	lw	a6,60(a5)
	lw	a5,56(a5)
	andi	s2,a5,-65
	andi	s3,a6,-1
	lw	a5,-72(s0)
	sw	s2,56(a5)
	sw	s3,60(a5)
	j	.L175
.L172:
	.loc 1 3107 14
	li	a5,-8
	sb	a5,-33(s0)
.L175:
	.loc 1 3110 12
	lb	a5,-33(s0)
	.loc 1 3111 1
	mv	a0,a5
	lw	ra,76(sp)
	.cfi_restore 1
	lw	s0,72(sp)
	.cfi_restore 8
	lw	s2,68(sp)
	.cfi_restore 18
	lw	s3,64(sp)
	.cfi_restore 19
	lw	s4,60(sp)
	.cfi_restore 20
	lw	s5,56(sp)
	.cfi_restore 21
	addi	sp,sp,80
	.cfi_def_cfa_register 2
	jr	ra
	.cfi_endproc
.LFE21:
	.size	set_step_detector, .-set_step_detector
	.align	1
	.type	set_step_counter, @function
set_step_counter:
.LFB22:
	.loc 1 3117 1
	.cfi_startproc
	addi	sp,sp,-80
	.cfi_def_cfa_offset 80
	sw	ra,76(sp)
	sw	s0,72(sp)
	sw	s2,68(sp)
	sw	s3,64(sp)
	sw	s4,60(sp)
	sw	s5,56(sp)
	.cfi_offset 1, -4
	.cfi_offset 8, -8
	.cfi_offset 18, -12
	.cfi_offset 19, -16
	.cfi_offset 20, -20
	.cfi_offset 21, -24
	addi	s0,sp,80
	.cfi_def_cfa 8, 0
	mv	a5,a0
	sw	a1,-72(s0)
	sb	a5,-65(s0)
	.loc 1 3122 13
	sw	zero,-52(s0)
	sw	zero,-48(s0)
	sw	zero,-44(s0)
	sw	zero,-40(s0)
	.loc 1 3125 13
	sb	zero,-34(s0)
	.loc 1 3131 32
	sb	zero,-56(s0)
	sb	zero,-55(s0)
	sb	zero,-54(s0)
	.loc 1 3134 18
	addi	a5,s0,-56
	lw	a2,-72(s0)
	li	a1,7
	mv	a0,a5
	call	bmi2_extract_input_feat_config
	mv	a5,a0
	sb	a5,-35(s0)
	.loc 1 3135 8
	lbu	a5,-35(s0)
	beqz	a5,.L178
	.loc 1 3138 16
	lbu	a5,-55(s0)
	addi	a4,s0,-52
	lw	a2,-72(s0)
	mv	a1,a4
	mv	a0,a5
	call	bmi2_get_feat_config
	mv	a5,a0
	sb	a5,-33(s0)
	.loc 1 3139 12
	lb	a5,-33(s0)
	bnez	a5,.L181
	.loc 1 3142 36
	lbu	a5,-54(s0)
	.loc 1 3142 17
	addi	a5,a5,1
	sb	a5,-34(s0)
	.loc 1 3145 45
	lbu	a5,-34(s0)
	addi	a4,s0,-32
	add	a5,a4,a5
	lbu	a5,-20(a5)
	slli	a5,a5,24
	srai	a5,a5,24
	.loc 1 3145 51
	andi	a5,a5,-17
	slli	a4,a5,24
	srai	a4,a4,24
	.loc 1 3145 73
	lbu	a5,-65(s0)
	slli	a5,a5,4
	.loc 1 3145 82
	slli	a5,a5,24
	srai	a5,a5,24
	andi	a5,a5,16
	slli	a5,a5,24
	srai	a5,a5,24
	.loc 1 3145 62
	or	a5,a4,a5
	slli	a4,a5,24
	srai	a4,a4,24
	.loc 1 3145 24
	lbu	a5,-34(s0)
	.loc 1 3145 62
	andi	a4,a4,0xff
	.loc 1 3145 30
	addi	a3,s0,-32
	add	a5,a3,a5
	sb	a4,-20(a5)
	.loc 1 3148 20
	addi	a5,s0,-52
	lw	a3,-72(s0)
	li	a2,16
	mv	a1,a5
	li	a0,48
	call	bmi2_set_regs
	mv	a5,a0
	sb	a5,-33(s0)
	.loc 1 3150 16
	lb	a5,-33(s0)
	bnez	a5,.L180
	.loc 1 3150 29 discriminator 1
	lbu	a4,-65(s0)
	li	a5,1
	bne	a4,a5,.L180
	.loc 1 3152 35
	lw	a5,-72(s0)
	lw	a6,60(a5)
	lw	a5,56(a5)
	ori	s4,a5,128
	ori	s5,a6,0
	lw	a5,-72(s0)
	sw	s4,56(a5)
	sw	s5,60(a5)
	j	.L181
.L180:
	.loc 1 3156 35
	lw	a5,-72(s0)
	lw	a6,60(a5)
	lw	a5,56(a5)
	andi	s2,a5,-129
	andi	s3,a6,-1
	lw	a5,-72(s0)
	sw	s2,56(a5)
	sw	s3,60(a5)
	j	.L181
.L178:
	.loc 1 3162 14
	li	a5,-8
	sb	a5,-33(s0)
.L181:
	.loc 1 3165 12
	lb	a5,-33(s0)
	.loc 1 3166 1
	mv	a0,a5
	lw	ra,76(sp)
	.cfi_restore 1
	lw	s0,72(sp)
	.cfi_restore 8
	lw	s2,68(sp)
	.cfi_restore 18
	lw	s3,64(sp)
	.cfi_restore 19
	lw	s4,60(sp)
	.cfi_restore 20
	lw	s5,56(sp)
	.cfi_restore 21
	addi	sp,sp,80
	.cfi_def_cfa_register 2
	jr	ra
	.cfi_endproc
.LFE22:
	.size	set_step_counter, .-set_step_counter
	.align	1
	.type	set_step_activity, @function
set_step_activity:
.LFB23:
	.loc 1 3172 1
	.cfi_startproc
	addi	sp,sp,-80
	.cfi_def_cfa_offset 80
	sw	ra,76(sp)
	sw	s0,72(sp)
	sw	s2,68(sp)
	sw	s3,64(sp)
	sw	s4,60(sp)
	sw	s5,56(sp)
	.cfi_offset 1, -4
	.cfi_offset 8, -8
	.cfi_offset 18, -12
	.cfi_offset 19, -16
	.cfi_offset 20, -20
	.cfi_offset 21, -24
	addi	s0,sp,80
	.cfi_def_cfa 8, 0
	mv	a5,a0
	sw	a1,-72(s0)
	sb	a5,-65(s0)
	.loc 1 3177 13
	sw	zero,-52(s0)
	sw	zero,-48(s0)
	sw	zero,-44(s0)
	sw	zero,-40(s0)
	.loc 1 3180 13
	sb	zero,-34(s0)
	.loc 1 3186 32
	sb	zero,-56(s0)
	sb	zero,-55(s0)
	sb	zero,-54(s0)
	.loc 1 3189 18
	addi	a5,s0,-56
	lw	a2,-72(s0)
	li	a1,8
	mv	a0,a5
	call	bmi2_extract_input_feat_config
	mv	a5,a0
	sb	a5,-35(s0)
	.loc 1 3190 8
	lbu	a5,-35(s0)
	beqz	a5,.L184
	.loc 1 3195 16
	lbu	a5,-55(s0)
	addi	a4,s0,-52
	lw	a2,-72(s0)
	mv	a1,a4
	mv	a0,a5
	call	bmi2_get_feat_config
	mv	a5,a0
	sb	a5,-33(s0)
	.loc 1 3196 12
	lb	a5,-33(s0)
	bnez	a5,.L187
	.loc 1 3199 34
	lbu	a5,-54(s0)
	.loc 1 3199 17
	addi	a5,a5,1
	sb	a5,-34(s0)
	.loc 1 3202 45
	lbu	a5,-34(s0)
	addi	a4,s0,-32
	add	a5,a4,a5
	lbu	a5,-20(a5)
	slli	a5,a5,24
	srai	a5,a5,24
	.loc 1 3202 51
	andi	a5,a5,-33
	slli	a4,a5,24
	srai	a4,a4,24
	.loc 1 3202 73
	lbu	a5,-65(s0)
	slli	a5,a5,5
	.loc 1 3202 82
	slli	a5,a5,24
	srai	a5,a5,24
	andi	a5,a5,32
	slli	a5,a5,24
	srai	a5,a5,24
	.loc 1 3202 62
	or	a5,a4,a5
	slli	a4,a5,24
	srai	a4,a4,24
	.loc 1 3202 24
	lbu	a5,-34(s0)
	.loc 1 3202 62
	andi	a4,a4,0xff
	.loc 1 3202 30
	addi	a3,s0,-32
	add	a5,a3,a5
	sb	a4,-20(a5)
	.loc 1 3205 20
	addi	a5,s0,-52
	lw	a3,-72(s0)
	li	a2,16
	mv	a1,a5
	li	a0,48
	call	bmi2_set_regs
	mv	a5,a0
	sb	a5,-33(s0)
	.loc 1 3207 16
	lb	a5,-33(s0)
	bnez	a5,.L186
	.loc 1 3207 29 discriminator 1
	lbu	a4,-65(s0)
	li	a5,1
	bne	a4,a5,.L186
	.loc 1 3209 35
	lw	a5,-72(s0)
	lw	a6,60(a5)
	lw	a5,56(a5)
	ori	s4,a5,256
	ori	s5,a6,0
	lw	a5,-72(s0)
	sw	s4,56(a5)
	sw	s5,60(a5)
	j	.L187
.L186:
	.loc 1 3213 35
	lw	a5,-72(s0)
	lw	a6,60(a5)
	lw	a5,56(a5)
	andi	s2,a5,-257
	andi	s3,a6,-1
	lw	a5,-72(s0)
	sw	s2,56(a5)
	sw	s3,60(a5)
	j	.L187
.L184:
	.loc 1 3219 14
	li	a5,-8
	sb	a5,-33(s0)
.L187:
	.loc 1 3222 12
	lb	a5,-33(s0)
	.loc 1 3223 1
	mv	a0,a5
	lw	ra,76(sp)
	.cfi_restore 1
	lw	s0,72(sp)
	.cfi_restore 8
	lw	s2,68(sp)
	.cfi_restore 18
	lw	s3,64(sp)
	.cfi_restore 19
	lw	s4,60(sp)
	.cfi_restore 20
	lw	s5,56(sp)
	.cfi_restore 21
	addi	sp,sp,80
	.cfi_def_cfa_register 2
	jr	ra
	.cfi_endproc
.LFE23:
	.size	set_step_activity, .-set_step_activity
	.align	1
	.type	set_sig_motion, @function
set_sig_motion:
.LFB24:
	.loc 1 3229 1
	.cfi_startproc
	addi	sp,sp,-80
	.cfi_def_cfa_offset 80
	sw	ra,76(sp)
	sw	s0,72(sp)
	sw	s2,68(sp)
	sw	s3,64(sp)
	sw	s4,60(sp)
	sw	s5,56(sp)
	.cfi_offset 1, -4
	.cfi_offset 8, -8
	.cfi_offset 18, -12
	.cfi_offset 19, -16
	.cfi_offset 20, -20
	.cfi_offset 21, -24
	addi	s0,sp,80
	.cfi_def_cfa 8, 0
	mv	a5,a0
	sw	a1,-72(s0)
	sb	a5,-65(s0)
	.loc 1 3234 13
	sw	zero,-52(s0)
	sw	zero,-48(s0)
	sw	zero,-44(s0)
	sw	zero,-40(s0)
	.loc 1 3237 13
	sb	zero,-34(s0)
	.loc 1 3243 32
	sb	zero,-56(s0)
	sb	zero,-55(s0)
	sb	zero,-54(s0)
	.loc 1 3246 18
	addi	a5,s0,-56
	lw	a2,-72(s0)
	li	a1,3
	mv	a0,a5
	call	bmi2_extract_input_feat_config
	mv	a5,a0
	sb	a5,-35(s0)
	.loc 1 3247 8
	lbu	a5,-35(s0)
	beqz	a5,.L190
	.loc 1 3250 16
	lbu	a5,-55(s0)
	addi	a4,s0,-52
	lw	a2,-72(s0)
	mv	a1,a4
	mv	a0,a5
	call	bmi2_get_feat_config
	mv	a5,a0
	sb	a5,-33(s0)
	.loc 1 3251 12
	lb	a5,-33(s0)
	bnez	a5,.L193
	.loc 1 3254 33
	lbu	a5,-54(s0)
	.loc 1 3254 17
	addi	a5,a5,10
	sb	a5,-34(s0)
	.loc 1 3257 45
	lbu	a5,-34(s0)
	addi	a4,s0,-32
	add	a5,a4,a5
	lbu	a5,-20(a5)
	slli	a5,a5,24
	srai	a5,a5,24
	.loc 1 3257 51
	andi	a5,a5,-2
	slli	a4,a5,24
	srai	a4,a4,24
	.loc 1 3257 72
	lb	a5,-65(s0)
	andi	a5,a5,1
	slli	a5,a5,24
	srai	a5,a5,24
	.loc 1 3257 62
	or	a5,a4,a5
	slli	a4,a5,24
	srai	a4,a4,24
	.loc 1 3257 24
	lbu	a5,-34(s0)
	.loc 1 3257 62
	andi	a4,a4,0xff
	.loc 1 3257 30
	addi	a3,s0,-32
	add	a5,a3,a5
	sb	a4,-20(a5)
	.loc 1 3260 20
	addi	a5,s0,-52
	lw	a3,-72(s0)
	li	a2,16
	mv	a1,a5
	li	a0,48
	call	bmi2_set_regs
	mv	a5,a0
	sb	a5,-33(s0)
	.loc 1 3262 16
	lb	a5,-33(s0)
	bnez	a5,.L192
	.loc 1 3262 29 discriminator 1
	lbu	a4,-65(s0)
	li	a5,1
	bne	a4,a5,.L192
	.loc 1 3264 35
	lw	a5,-72(s0)
	lw	a6,60(a5)
	lw	a5,56(a5)
	ori	s4,a5,8
	ori	s5,a6,0
	lw	a5,-72(s0)
	sw	s4,56(a5)
	sw	s5,60(a5)
	j	.L193
.L192:
	.loc 1 3268 35
	lw	a5,-72(s0)
	lw	a6,60(a5)
	lw	a5,56(a5)
	andi	s2,a5,-9
	andi	s3,a6,-1
	lw	a5,-72(s0)
	sw	s2,56(a5)
	sw	s3,60(a5)
	j	.L193
.L190:
	.loc 1 3274 14
	li	a5,-8
	sb	a5,-33(s0)
.L193:
	.loc 1 3277 12
	lb	a5,-33(s0)
	.loc 1 3278 1
	mv	a0,a5
	lw	ra,76(sp)
	.cfi_restore 1
	lw	s0,72(sp)
	.cfi_restore 8
	lw	s2,68(sp)
	.cfi_restore 18
	lw	s3,64(sp)
	.cfi_restore 19
	lw	s4,60(sp)
	.cfi_restore 20
	lw	s5,56(sp)
	.cfi_restore 21
	addi	sp,sp,80
	.cfi_def_cfa_register 2
	jr	ra
	.cfi_endproc
.LFE24:
	.size	set_sig_motion, .-set_sig_motion
	.align	1
	.type	set_single_tap, @function
set_single_tap:
.LFB25:
	.loc 1 3285 1
	.cfi_startproc
	addi	sp,sp,-80
	.cfi_def_cfa_offset 80
	sw	ra,76(sp)
	sw	s0,72(sp)
	sw	s2,68(sp)
	sw	s3,64(sp)
	sw	s4,60(sp)
	sw	s5,56(sp)
	.cfi_offset 1, -4
	.cfi_offset 8, -8
	.cfi_offset 18, -12
	.cfi_offset 19, -16
	.cfi_offset 20, -20
	.cfi_offset 21, -24
	addi	s0,sp,80
	.cfi_def_cfa 8, 0
	mv	a5,a0
	sw	a1,-72(s0)
	sb	a5,-65(s0)
	.loc 1 3290 13
	sw	zero,-52(s0)
	sw	zero,-48(s0)
	sw	zero,-44(s0)
	sw	zero,-40(s0)
	.loc 1 3293 13
	sb	zero,-34(s0)
	.loc 1 3299 32
	sb	zero,-56(s0)
	sb	zero,-55(s0)
	sb	zero,-54(s0)
	.loc 1 3302 18
	addi	a5,s0,-56
	lw	a2,-72(s0)
	li	a1,25
	mv	a0,a5
	call	bmi2_extract_input_feat_config
	mv	a5,a0
	sb	a5,-35(s0)
	.loc 1 3303 8
	lbu	a5,-35(s0)
	beqz	a5,.L196
	.loc 1 3306 16
	lbu	a5,-55(s0)
	addi	a4,s0,-52
	lw	a2,-72(s0)
	mv	a1,a4
	mv	a0,a5
	call	bmi2_get_feat_config
	mv	a5,a0
	sb	a5,-33(s0)
	.loc 1 3307 12
	lb	a5,-33(s0)
	bnez	a5,.L199
	.loc 1 3310 17
	lbu	a5,-54(s0)
	sb	a5,-34(s0)
	.loc 1 3313 45
	lbu	a5,-34(s0)
	addi	a4,s0,-32
	add	a5,a4,a5
	lbu	a5,-20(a5)
	slli	a5,a5,24
	srai	a5,a5,24
	.loc 1 3313 51
	andi	a5,a5,-2
	slli	a4,a5,24
	srai	a4,a4,24
	.loc 1 3313 72
	lb	a5,-65(s0)
	andi	a5,a5,1
	slli	a5,a5,24
	srai	a5,a5,24
	.loc 1 3313 62
	or	a5,a4,a5
	slli	a4,a5,24
	srai	a4,a4,24
	.loc 1 3313 24
	lbu	a5,-34(s0)
	.loc 1 3313 62
	andi	a4,a4,0xff
	.loc 1 3313 30
	addi	a3,s0,-32
	add	a5,a3,a5
	sb	a4,-20(a5)
	.loc 1 3316 20
	addi	a5,s0,-52
	lw	a3,-72(s0)
	li	a2,16
	mv	a1,a5
	li	a0,48
	call	bmi2_set_regs
	mv	a5,a0
	sb	a5,-33(s0)
	.loc 1 3318 16
	lb	a5,-33(s0)
	bnez	a5,.L198
	.loc 1 3318 29 discriminator 1
	lbu	a4,-65(s0)
	li	a5,1
	bne	a4,a5,.L198
	.loc 1 3320 35
	lw	a5,-72(s0)
	lw	a6,60(a5)
	lw	a5,56(a5)
	li	a4,33554432
	or	s4,a5,a4
	ori	s5,a6,0
	lw	a5,-72(s0)
	sw	s4,56(a5)
	sw	s5,60(a5)
	j	.L199
.L198:
	.loc 1 3324 35
	lw	a5,-72(s0)
	lw	a6,60(a5)
	lw	a5,56(a5)
	li	a4,-33554432
	addi	a4,a4,-1
	and	s2,a5,a4
	andi	s3,a6,-1
	lw	a5,-72(s0)
	sw	s2,56(a5)
	sw	s3,60(a5)
	j	.L199
.L196:
	.loc 1 3330 14
	li	a5,-8
	sb	a5,-33(s0)
.L199:
	.loc 1 3333 12
	lb	a5,-33(s0)
	.loc 1 3334 1
	mv	a0,a5
	lw	ra,76(sp)
	.cfi_restore 1
	lw	s0,72(sp)
	.cfi_restore 8
	lw	s2,68(sp)
	.cfi_restore 18
	lw	s3,64(sp)
	.cfi_restore 19
	lw	s4,60(sp)
	.cfi_restore 20
	lw	s5,56(sp)
	.cfi_restore 21
	addi	sp,sp,80
	.cfi_def_cfa_register 2
	jr	ra
	.cfi_endproc
.LFE25:
	.size	set_single_tap, .-set_single_tap
	.align	1
	.type	set_double_tap, @function
set_double_tap:
.LFB26:
	.loc 1 3341 1
	.cfi_startproc
	addi	sp,sp,-80
	.cfi_def_cfa_offset 80
	sw	ra,76(sp)
	sw	s0,72(sp)
	sw	s2,68(sp)
	sw	s3,64(sp)
	sw	s4,60(sp)
	sw	s5,56(sp)
	.cfi_offset 1, -4
	.cfi_offset 8, -8
	.cfi_offset 18, -12
	.cfi_offset 19, -16
	.cfi_offset 20, -20
	.cfi_offset 21, -24
	addi	s0,sp,80
	.cfi_def_cfa 8, 0
	mv	a5,a0
	sw	a1,-72(s0)
	sb	a5,-65(s0)
	.loc 1 3346 13
	sw	zero,-52(s0)
	sw	zero,-48(s0)
	sw	zero,-44(s0)
	sw	zero,-40(s0)
	.loc 1 3349 13
	sb	zero,-34(s0)
	.loc 1 3355 32
	sb	zero,-56(s0)
	sb	zero,-55(s0)
	sb	zero,-54(s0)
	.loc 1 3358 18
	addi	a5,s0,-56
	lw	a2,-72(s0)
	li	a1,26
	mv	a0,a5
	call	bmi2_extract_input_feat_config
	mv	a5,a0
	sb	a5,-35(s0)
	.loc 1 3359 8
	lbu	a5,-35(s0)
	beqz	a5,.L202
	.loc 1 3362 16
	lbu	a5,-55(s0)
	addi	a4,s0,-52
	lw	a2,-72(s0)
	mv	a1,a4
	mv	a0,a5
	call	bmi2_get_feat_config
	mv	a5,a0
	sb	a5,-33(s0)
	.loc 1 3363 12
	lb	a5,-33(s0)
	bnez	a5,.L205
	.loc 1 3366 17
	lbu	a5,-54(s0)
	sb	a5,-34(s0)
	.loc 1 3369 45
	lbu	a5,-34(s0)
	addi	a4,s0,-32
	add	a5,a4,a5
	lbu	a5,-20(a5)
	slli	a5,a5,24
	srai	a5,a5,24
	.loc 1 3369 51
	andi	a5,a5,-3
	slli	a4,a5,24
	srai	a4,a4,24
	.loc 1 3369 73
	lbu	a5,-65(s0)
	slli	a5,a5,1
	.loc 1 3369 82
	slli	a5,a5,24
	srai	a5,a5,24
	andi	a5,a5,2
	slli	a5,a5,24
	srai	a5,a5,24
	.loc 1 3369 62
	or	a5,a4,a5
	slli	a4,a5,24
	srai	a4,a4,24
	.loc 1 3369 24
	lbu	a5,-34(s0)
	.loc 1 3369 62
	andi	a4,a4,0xff
	.loc 1 3369 30
	addi	a3,s0,-32
	add	a5,a3,a5
	sb	a4,-20(a5)
	.loc 1 3372 20
	addi	a5,s0,-52
	lw	a3,-72(s0)
	li	a2,16
	mv	a1,a5
	li	a0,48
	call	bmi2_set_regs
	mv	a5,a0
	sb	a5,-33(s0)
	.loc 1 3374 16
	lb	a5,-33(s0)
	bnez	a5,.L204
	.loc 1 3374 29 discriminator 1
	lbu	a4,-65(s0)
	li	a5,1
	bne	a4,a5,.L204
	.loc 1 3376 35
	lw	a5,-72(s0)
	lw	a6,60(a5)
	lw	a5,56(a5)
	li	a4,67108864
	or	s4,a5,a4
	ori	s5,a6,0
	lw	a5,-72(s0)
	sw	s4,56(a5)
	sw	s5,60(a5)
	j	.L205
.L204:
	.loc 1 3380 35
	lw	a5,-72(s0)
	lw	a6,60(a5)
	lw	a5,56(a5)
	li	a4,-67108864
	addi	a4,a4,-1
	and	s2,a5,a4
	andi	s3,a6,-1
	lw	a5,-72(s0)
	sw	s2,56(a5)
	sw	s3,60(a5)
	j	.L205
.L202:
	.loc 1 3386 14
	li	a5,-8
	sb	a5,-33(s0)
.L205:
	.loc 1 3389 12
	lb	a5,-33(s0)
	.loc 1 3390 1
	mv	a0,a5
	lw	ra,76(sp)
	.cfi_restore 1
	lw	s0,72(sp)
	.cfi_restore 8
	lw	s2,68(sp)
	.cfi_restore 18
	lw	s3,64(sp)
	.cfi_restore 19
	lw	s4,60(sp)
	.cfi_restore 20
	lw	s5,56(sp)
	.cfi_restore 21
	addi	sp,sp,80
	.cfi_def_cfa_register 2
	jr	ra
	.cfi_endproc
.LFE26:
	.size	set_double_tap, .-set_double_tap
	.align	1
	.type	set_triple_tap, @function
set_triple_tap:
.LFB27:
	.loc 1 3397 1
	.cfi_startproc
	addi	sp,sp,-80
	.cfi_def_cfa_offset 80
	sw	ra,76(sp)
	sw	s0,72(sp)
	sw	s2,68(sp)
	sw	s3,64(sp)
	sw	s4,60(sp)
	sw	s5,56(sp)
	.cfi_offset 1, -4
	.cfi_offset 8, -8
	.cfi_offset 18, -12
	.cfi_offset 19, -16
	.cfi_offset 20, -20
	.cfi_offset 21, -24
	addi	s0,sp,80
	.cfi_def_cfa 8, 0
	mv	a5,a0
	sw	a1,-72(s0)
	sb	a5,-65(s0)
	.loc 1 3402 13
	sw	zero,-52(s0)
	sw	zero,-48(s0)
	sw	zero,-44(s0)
	sw	zero,-40(s0)
	.loc 1 3405 13
	sb	zero,-34(s0)
	.loc 1 3411 32
	sb	zero,-56(s0)
	sb	zero,-55(s0)
	sb	zero,-54(s0)
	.loc 1 3414 18
	addi	a5,s0,-56
	lw	a2,-72(s0)
	li	a1,27
	mv	a0,a5
	call	bmi2_extract_input_feat_config
	mv	a5,a0
	sb	a5,-35(s0)
	.loc 1 3415 8
	lbu	a5,-35(s0)
	beqz	a5,.L208
	.loc 1 3418 16
	lbu	a5,-55(s0)
	addi	a4,s0,-52
	lw	a2,-72(s0)
	mv	a1,a4
	mv	a0,a5
	call	bmi2_get_feat_config
	mv	a5,a0
	sb	a5,-33(s0)
	.loc 1 3419 12
	lb	a5,-33(s0)
	bnez	a5,.L211
	.loc 1 3422 17
	lbu	a5,-54(s0)
	sb	a5,-34(s0)
	.loc 1 3425 45
	lbu	a5,-34(s0)
	addi	a4,s0,-32
	add	a5,a4,a5
	lbu	a5,-20(a5)
	slli	a5,a5,24
	srai	a5,a5,24
	.loc 1 3425 51
	andi	a5,a5,-5
	slli	a4,a5,24
	srai	a4,a4,24
	.loc 1 3425 73
	lbu	a5,-65(s0)
	slli	a5,a5,2
	.loc 1 3425 82
	slli	a5,a5,24
	srai	a5,a5,24
	andi	a5,a5,4
	slli	a5,a5,24
	srai	a5,a5,24
	.loc 1 3425 62
	or	a5,a4,a5
	slli	a4,a5,24
	srai	a4,a4,24
	.loc 1 3425 24
	lbu	a5,-34(s0)
	.loc 1 3425 62
	andi	a4,a4,0xff
	.loc 1 3425 30
	addi	a3,s0,-32
	add	a5,a3,a5
	sb	a4,-20(a5)
	.loc 1 3428 20
	addi	a5,s0,-52
	lw	a3,-72(s0)
	li	a2,16
	mv	a1,a5
	li	a0,48
	call	bmi2_set_regs
	mv	a5,a0
	sb	a5,-33(s0)
	.loc 1 3430 16
	lb	a5,-33(s0)
	bnez	a5,.L210
	.loc 1 3430 29 discriminator 1
	lbu	a4,-65(s0)
	li	a5,1
	bne	a4,a5,.L210
	.loc 1 3432 35
	lw	a5,-72(s0)
	lw	a6,60(a5)
	lw	a5,56(a5)
	li	a4,134217728
	or	s4,a5,a4
	ori	s5,a6,0
	lw	a5,-72(s0)
	sw	s4,56(a5)
	sw	s5,60(a5)
	j	.L211
.L210:
	.loc 1 3436 35
	lw	a5,-72(s0)
	lw	a6,60(a5)
	lw	a5,56(a5)
	li	a4,-134217728
	addi	a4,a4,-1
	and	s2,a5,a4
	andi	s3,a6,-1
	lw	a5,-72(s0)
	sw	s2,56(a5)
	sw	s3,60(a5)
	j	.L211
.L208:
	.loc 1 3442 14
	li	a5,-8
	sb	a5,-33(s0)
.L211:
	.loc 1 3445 12
	lb	a5,-33(s0)
	.loc 1 3446 1
	mv	a0,a5
	lw	ra,76(sp)
	.cfi_restore 1
	lw	s0,72(sp)
	.cfi_restore 8
	lw	s2,68(sp)
	.cfi_restore 18
	lw	s3,64(sp)
	.cfi_restore 19
	lw	s4,60(sp)
	.cfi_restore 20
	lw	s5,56(sp)
	.cfi_restore 21
	addi	sp,sp,80
	.cfi_def_cfa_register 2
	jr	ra
	.cfi_endproc
.LFE27:
	.size	set_triple_tap, .-set_triple_tap
	.align	1
	.type	set_orientation, @function
set_orientation:
.LFB28:
	.loc 1 3452 1
	.cfi_startproc
	addi	sp,sp,-80
	.cfi_def_cfa_offset 80
	sw	ra,76(sp)
	sw	s0,72(sp)
	sw	s2,68(sp)
	sw	s3,64(sp)
	sw	s4,60(sp)
	sw	s5,56(sp)
	.cfi_offset 1, -4
	.cfi_offset 8, -8
	.cfi_offset 18, -12
	.cfi_offset 19, -16
	.cfi_offset 20, -20
	.cfi_offset 21, -24
	addi	s0,sp,80
	.cfi_def_cfa 8, 0
	mv	a5,a0
	sw	a1,-72(s0)
	sb	a5,-65(s0)
	.loc 1 3457 13
	sw	zero,-52(s0)
	sw	zero,-48(s0)
	sw	zero,-44(s0)
	sw	zero,-40(s0)
	.loc 1 3460 13
	sb	zero,-34(s0)
	.loc 1 3466 32
	sb	zero,-56(s0)
	sb	zero,-55(s0)
	sb	zero,-54(s0)
	.loc 1 3469 18
	addi	a5,s0,-56
	lw	a2,-72(s0)
	li	a1,14
	mv	a0,a5
	call	bmi2_extract_input_feat_config
	mv	a5,a0
	sb	a5,-35(s0)
	.loc 1 3470 8
	lbu	a5,-35(s0)
	beqz	a5,.L214
	.loc 1 3473 16
	lbu	a5,-55(s0)
	addi	a4,s0,-52
	lw	a2,-72(s0)
	mv	a1,a4
	mv	a0,a5
	call	bmi2_get_feat_config
	mv	a5,a0
	sb	a5,-33(s0)
	.loc 1 3474 12
	lb	a5,-33(s0)
	bnez	a5,.L217
	.loc 1 3477 17
	lbu	a5,-54(s0)
	sb	a5,-34(s0)
	.loc 1 3480 45
	lbu	a5,-34(s0)
	addi	a4,s0,-32
	add	a5,a4,a5
	lbu	a5,-20(a5)
	slli	a5,a5,24
	srai	a5,a5,24
	.loc 1 3480 51
	andi	a5,a5,-2
	slli	a4,a5,24
	srai	a4,a4,24
	.loc 1 3480 72
	lb	a5,-65(s0)
	andi	a5,a5,1
	slli	a5,a5,24
	srai	a5,a5,24
	.loc 1 3480 62
	or	a5,a4,a5
	slli	a4,a5,24
	srai	a4,a4,24
	.loc 1 3480 24
	lbu	a5,-34(s0)
	.loc 1 3480 62
	andi	a4,a4,0xff
	.loc 1 3480 30
	addi	a3,s0,-32
	add	a5,a3,a5
	sb	a4,-20(a5)
	.loc 1 3483 20
	addi	a5,s0,-52
	lw	a3,-72(s0)
	li	a2,16
	mv	a1,a5
	li	a0,48
	call	bmi2_set_regs
	mv	a5,a0
	sb	a5,-33(s0)
	.loc 1 3485 16
	lb	a5,-33(s0)
	bnez	a5,.L216
	.loc 1 3485 29 discriminator 1
	lbu	a4,-65(s0)
	li	a5,1
	bne	a4,a5,.L216
	.loc 1 3487 35
	lw	a5,-72(s0)
	lw	a6,60(a5)
	lw	a5,56(a5)
	li	a4,16384
	or	s4,a5,a4
	ori	s5,a6,0
	lw	a5,-72(s0)
	sw	s4,56(a5)
	sw	s5,60(a5)
	j	.L217
.L216:
	.loc 1 3491 35
	lw	a5,-72(s0)
	lw	a6,60(a5)
	lw	a5,56(a5)
	li	a4,-16384
	addi	a4,a4,-1
	and	s2,a5,a4
	andi	s3,a6,-1
	lw	a5,-72(s0)
	sw	s2,56(a5)
	sw	s3,60(a5)
	j	.L217
.L214:
	.loc 1 3497 14
	li	a5,-8
	sb	a5,-33(s0)
.L217:
	.loc 1 3500 12
	lb	a5,-33(s0)
	.loc 1 3501 1
	mv	a0,a5
	lw	ra,76(sp)
	.cfi_restore 1
	lw	s0,72(sp)
	.cfi_restore 8
	lw	s2,68(sp)
	.cfi_restore 18
	lw	s3,64(sp)
	.cfi_restore 19
	lw	s4,60(sp)
	.cfi_restore 20
	lw	s5,56(sp)
	.cfi_restore 21
	addi	sp,sp,80
	.cfi_def_cfa_register 2
	jr	ra
	.cfi_endproc
.LFE28:
	.size	set_orientation, .-set_orientation
	.align	1
	.type	set_high_g, @function
set_high_g:
.LFB29:
	.loc 1 3507 1
	.cfi_startproc
	addi	sp,sp,-80
	.cfi_def_cfa_offset 80
	sw	ra,76(sp)
	sw	s0,72(sp)
	sw	s2,68(sp)
	sw	s3,64(sp)
	sw	s4,60(sp)
	sw	s5,56(sp)
	.cfi_offset 1, -4
	.cfi_offset 8, -8
	.cfi_offset 18, -12
	.cfi_offset 19, -16
	.cfi_offset 20, -20
	.cfi_offset 21, -24
	addi	s0,sp,80
	.cfi_def_cfa 8, 0
	mv	a5,a0
	sw	a1,-72(s0)
	sb	a5,-65(s0)
	.loc 1 3512 13
	sw	zero,-52(s0)
	sw	zero,-48(s0)
	sw	zero,-44(s0)
	sw	zero,-40(s0)
	.loc 1 3515 13
	sb	zero,-34(s0)
	.loc 1 3521 32
	sb	zero,-56(s0)
	sb	zero,-55(s0)
	sb	zero,-54(s0)
	.loc 1 3524 18
	addi	a5,s0,-56
	lw	a2,-72(s0)
	li	a1,15
	mv	a0,a5
	call	bmi2_extract_input_feat_config
	mv	a5,a0
	sb	a5,-35(s0)
	.loc 1 3525 8
	lbu	a5,-35(s0)
	beqz	a5,.L220
	.loc 1 3528 16
	lbu	a5,-55(s0)
	addi	a4,s0,-52
	lw	a2,-72(s0)
	mv	a1,a4
	mv	a0,a5
	call	bmi2_get_feat_config
	mv	a5,a0
	sb	a5,-33(s0)
	.loc 1 3529 12
	lb	a5,-33(s0)
	bnez	a5,.L223
	.loc 1 3532 32
	lbu	a5,-54(s0)
	.loc 1 3532 17
	addi	a5,a5,3
	sb	a5,-34(s0)
	.loc 1 3535 45
	lbu	a5,-34(s0)
	addi	a4,s0,-32
	add	a5,a4,a5
	lbu	a5,-20(a5)
	slli	a5,a5,24
	srai	a5,a5,24
	.loc 1 3535 51
	andi	a5,a5,127
	slli	a4,a5,24
	srai	a4,a4,24
	.loc 1 3535 73
	lbu	a5,-65(s0)
	slli	a5,a5,7
	.loc 1 3535 62
	slli	a5,a5,24
	srai	a5,a5,24
	or	a5,a4,a5
	slli	a4,a5,24
	srai	a4,a4,24
	.loc 1 3535 24
	lbu	a5,-34(s0)
	.loc 1 3535 62
	andi	a4,a4,0xff
	.loc 1 3535 30
	addi	a3,s0,-32
	add	a5,a3,a5
	sb	a4,-20(a5)
	.loc 1 3538 20
	addi	a5,s0,-52
	lw	a3,-72(s0)
	li	a2,16
	mv	a1,a5
	li	a0,48
	call	bmi2_set_regs
	mv	a5,a0
	sb	a5,-33(s0)
	.loc 1 3540 16
	lb	a5,-33(s0)
	bnez	a5,.L222
	.loc 1 3540 29 discriminator 1
	lbu	a4,-65(s0)
	li	a5,1
	bne	a4,a5,.L222
	.loc 1 3542 35
	lw	a5,-72(s0)
	lw	a6,60(a5)
	lw	a5,56(a5)
	li	a4,32768
	or	s4,a5,a4
	ori	s5,a6,0
	lw	a5,-72(s0)
	sw	s4,56(a5)
	sw	s5,60(a5)
	j	.L223
.L222:
	.loc 1 3546 35
	lw	a5,-72(s0)
	lw	a6,60(a5)
	lw	a5,56(a5)
	li	a4,-32768
	addi	a4,a4,-1
	and	s2,a5,a4
	andi	s3,a6,-1
	lw	a5,-72(s0)
	sw	s2,56(a5)
	sw	s3,60(a5)
	j	.L223
.L220:
	.loc 1 3552 14
	li	a5,-8
	sb	a5,-33(s0)
.L223:
	.loc 1 3555 12
	lb	a5,-33(s0)
	.loc 1 3556 1
	mv	a0,a5
	lw	ra,76(sp)
	.cfi_restore 1
	lw	s0,72(sp)
	.cfi_restore 8
	lw	s2,68(sp)
	.cfi_restore 18
	lw	s3,64(sp)
	.cfi_restore 19
	lw	s4,60(sp)
	.cfi_restore 20
	lw	s5,56(sp)
	.cfi_restore 21
	addi	sp,sp,80
	.cfi_def_cfa_register 2
	jr	ra
	.cfi_endproc
.LFE29:
	.size	set_high_g, .-set_high_g
	.align	1
	.type	set_low_g, @function
set_low_g:
.LFB30:
	.loc 1 3562 1
	.cfi_startproc
	addi	sp,sp,-80
	.cfi_def_cfa_offset 80
	sw	ra,76(sp)
	sw	s0,72(sp)
	sw	s2,68(sp)
	sw	s3,64(sp)
	sw	s4,60(sp)
	sw	s5,56(sp)
	.cfi_offset 1, -4
	.cfi_offset 8, -8
	.cfi_offset 18, -12
	.cfi_offset 19, -16
	.cfi_offset 20, -20
	.cfi_offset 21, -24
	addi	s0,sp,80
	.cfi_def_cfa 8, 0
	mv	a5,a0
	sw	a1,-72(s0)
	sb	a5,-65(s0)
	.loc 1 3567 13
	sw	zero,-52(s0)
	sw	zero,-48(s0)
	sw	zero,-44(s0)
	sw	zero,-40(s0)
	.loc 1 3570 13
	sb	zero,-34(s0)
	.loc 1 3576 32
	sb	zero,-56(s0)
	sb	zero,-55(s0)
	sb	zero,-54(s0)
	.loc 1 3579 18
	addi	a5,s0,-56
	lw	a2,-72(s0)
	li	a1,16
	mv	a0,a5
	call	bmi2_extract_input_feat_config
	mv	a5,a0
	sb	a5,-35(s0)
	.loc 1 3580 8
	lbu	a5,-35(s0)
	beqz	a5,.L226
	.loc 1 3583 16
	lbu	a5,-55(s0)
	addi	a4,s0,-52
	lw	a2,-72(s0)
	mv	a1,a4
	mv	a0,a5
	call	bmi2_get_feat_config
	mv	a5,a0
	sb	a5,-33(s0)
	.loc 1 3584 12
	lb	a5,-33(s0)
	bnez	a5,.L229
	.loc 1 3587 31
	lbu	a5,-54(s0)
	.loc 1 3587 17
	addi	a5,a5,3
	sb	a5,-34(s0)
	.loc 1 3590 45
	lbu	a5,-34(s0)
	addi	a4,s0,-32
	add	a5,a4,a5
	lbu	a5,-20(a5)
	slli	a5,a5,24
	srai	a5,a5,24
	.loc 1 3590 51
	andi	a5,a5,-17
	slli	a4,a5,24
	srai	a4,a4,24
	.loc 1 3590 73
	lbu	a5,-65(s0)
	slli	a5,a5,4
	.loc 1 3590 82
	slli	a5,a5,24
	srai	a5,a5,24
	andi	a5,a5,16
	slli	a5,a5,24
	srai	a5,a5,24
	.loc 1 3590 62
	or	a5,a4,a5
	slli	a4,a5,24
	srai	a4,a4,24
	.loc 1 3590 24
	lbu	a5,-34(s0)
	.loc 1 3590 62
	andi	a4,a4,0xff
	.loc 1 3590 30
	addi	a3,s0,-32
	add	a5,a3,a5
	sb	a4,-20(a5)
	.loc 1 3593 20
	addi	a5,s0,-52
	lw	a3,-72(s0)
	li	a2,16
	mv	a1,a5
	li	a0,48
	call	bmi2_set_regs
	mv	a5,a0
	sb	a5,-33(s0)
	.loc 1 3595 16
	lb	a5,-33(s0)
	bnez	a5,.L228
	.loc 1 3595 29 discriminator 1
	lbu	a4,-65(s0)
	li	a5,1
	bne	a4,a5,.L228
	.loc 1 3597 35
	lw	a5,-72(s0)
	lw	a6,60(a5)
	lw	a5,56(a5)
	li	a4,65536
	or	s4,a5,a4
	ori	s5,a6,0
	lw	a5,-72(s0)
	sw	s4,56(a5)
	sw	s5,60(a5)
	j	.L229
.L228:
	.loc 1 3601 35
	lw	a5,-72(s0)
	lw	a6,60(a5)
	lw	a5,56(a5)
	li	a4,-65536
	addi	a4,a4,-1
	and	s2,a5,a4
	andi	s3,a6,-1
	lw	a5,-72(s0)
	sw	s2,56(a5)
	sw	s3,60(a5)
	j	.L229
.L226:
	.loc 1 3607 14
	li	a5,-8
	sb	a5,-33(s0)
.L229:
	.loc 1 3610 12
	lb	a5,-33(s0)
	.loc 1 3611 1
	mv	a0,a5
	lw	ra,76(sp)
	.cfi_restore 1
	lw	s0,72(sp)
	.cfi_restore 8
	lw	s2,68(sp)
	.cfi_restore 18
	lw	s3,64(sp)
	.cfi_restore 19
	lw	s4,60(sp)
	.cfi_restore 20
	lw	s5,56(sp)
	.cfi_restore 21
	addi	sp,sp,80
	.cfi_def_cfa_register 2
	jr	ra
	.cfi_endproc
.LFE30:
	.size	set_low_g, .-set_low_g
	.align	1
	.type	set_flat, @function
set_flat:
.LFB31:
	.loc 1 3617 1
	.cfi_startproc
	addi	sp,sp,-80
	.cfi_def_cfa_offset 80
	sw	ra,76(sp)
	sw	s0,72(sp)
	sw	s2,68(sp)
	sw	s3,64(sp)
	sw	s4,60(sp)
	sw	s5,56(sp)
	.cfi_offset 1, -4
	.cfi_offset 8, -8
	.cfi_offset 18, -12
	.cfi_offset 19, -16
	.cfi_offset 20, -20
	.cfi_offset 21, -24
	addi	s0,sp,80
	.cfi_def_cfa 8, 0
	mv	a5,a0
	sw	a1,-72(s0)
	sb	a5,-65(s0)
	.loc 1 3622 13
	sw	zero,-52(s0)
	sw	zero,-48(s0)
	sw	zero,-44(s0)
	sw	zero,-40(s0)
	.loc 1 3625 13
	sb	zero,-34(s0)
	.loc 1 3631 32
	sb	zero,-56(s0)
	sb	zero,-55(s0)
	sb	zero,-54(s0)
	.loc 1 3634 18
	addi	a5,s0,-56
	lw	a2,-72(s0)
	li	a1,17
	mv	a0,a5
	call	bmi2_extract_input_feat_config
	mv	a5,a0
	sb	a5,-35(s0)
	.loc 1 3635 8
	lbu	a5,-35(s0)
	beqz	a5,.L232
	.loc 1 3638 16
	lbu	a5,-55(s0)
	addi	a4,s0,-52
	lw	a2,-72(s0)
	mv	a1,a4
	mv	a0,a5
	call	bmi2_get_feat_config
	mv	a5,a0
	sb	a5,-33(s0)
	.loc 1 3639 12
	lb	a5,-33(s0)
	bnez	a5,.L235
	.loc 1 3642 17
	lbu	a5,-54(s0)
	sb	a5,-34(s0)
	.loc 1 3645 45
	lbu	a5,-34(s0)
	addi	a4,s0,-32
	add	a5,a4,a5
	lbu	a5,-20(a5)
	slli	a5,a5,24
	srai	a5,a5,24
	.loc 1 3645 51
	andi	a5,a5,-2
	slli	a4,a5,24
	srai	a4,a4,24
	.loc 1 3645 72
	lb	a5,-65(s0)
	andi	a5,a5,1
	slli	a5,a5,24
	srai	a5,a5,24
	.loc 1 3645 62
	or	a5,a4,a5
	slli	a4,a5,24
	srai	a4,a4,24
	.loc 1 3645 24
	lbu	a5,-34(s0)
	.loc 1 3645 62
	andi	a4,a4,0xff
	.loc 1 3645 30
	addi	a3,s0,-32
	add	a5,a3,a5
	sb	a4,-20(a5)
	.loc 1 3648 20
	addi	a5,s0,-52
	lw	a3,-72(s0)
	li	a2,16
	mv	a1,a5
	li	a0,48
	call	bmi2_set_regs
	mv	a5,a0
	sb	a5,-33(s0)
	.loc 1 3650 16
	lb	a5,-33(s0)
	bnez	a5,.L234
	.loc 1 3650 29 discriminator 1
	lbu	a4,-65(s0)
	li	a5,1
	bne	a4,a5,.L234
	.loc 1 3652 35
	lw	a5,-72(s0)
	lw	a6,60(a5)
	lw	a5,56(a5)
	li	a4,131072
	or	s4,a5,a4
	ori	s5,a6,0
	lw	a5,-72(s0)
	sw	s4,56(a5)
	sw	s5,60(a5)
	j	.L235
.L234:
	.loc 1 3656 35
	lw	a5,-72(s0)
	lw	a6,60(a5)
	lw	a5,56(a5)
	li	a4,-131072
	addi	a4,a4,-1
	and	s2,a5,a4
	andi	s3,a6,-1
	lw	a5,-72(s0)
	sw	s2,56(a5)
	sw	s3,60(a5)
	j	.L235
.L232:
	.loc 1 3662 14
	li	a5,-8
	sb	a5,-33(s0)
.L235:
	.loc 1 3665 12
	lb	a5,-33(s0)
	.loc 1 3666 1
	mv	a0,a5
	lw	ra,76(sp)
	.cfi_restore 1
	lw	s0,72(sp)
	.cfi_restore 8
	lw	s2,68(sp)
	.cfi_restore 18
	lw	s3,64(sp)
	.cfi_restore 19
	lw	s4,60(sp)
	.cfi_restore 20
	lw	s5,56(sp)
	.cfi_restore 21
	addi	sp,sp,80
	.cfi_def_cfa_register 2
	jr	ra
	.cfi_endproc
.LFE31:
	.size	set_flat, .-set_flat
	.align	1
	.type	set_gyro_self_offset_corr, @function
set_gyro_self_offset_corr:
.LFB32:
	.loc 1 3673 1
	.cfi_startproc
	addi	sp,sp,-80
	.cfi_def_cfa_offset 80
	sw	ra,76(sp)
	sw	s0,72(sp)
	sw	s2,68(sp)
	sw	s3,64(sp)
	sw	s4,60(sp)
	sw	s5,56(sp)
	.cfi_offset 1, -4
	.cfi_offset 8, -8
	.cfi_offset 18, -12
	.cfi_offset 19, -16
	.cfi_offset 20, -20
	.cfi_offset 21, -24
	addi	s0,sp,80
	.cfi_def_cfa 8, 0
	mv	a5,a0
	sw	a1,-72(s0)
	sb	a5,-65(s0)
	.loc 1 3678 13
	sw	zero,-52(s0)
	sw	zero,-48(s0)
	sw	zero,-44(s0)
	sw	zero,-40(s0)
	.loc 1 3681 13
	sb	zero,-34(s0)
	.loc 1 3687 32
	sb	zero,-56(s0)
	sb	zero,-55(s0)
	sb	zero,-54(s0)
	.loc 1 3690 18
	addi	a5,s0,-56
	lw	a2,-72(s0)
	li	a1,34
	mv	a0,a5
	call	bmi2_extract_input_feat_config
	mv	a5,a0
	sb	a5,-35(s0)
	.loc 1 3691 8
	lbu	a5,-35(s0)
	beqz	a5,.L238
	.loc 1 3696 16
	lbu	a5,-55(s0)
	addi	a4,s0,-52
	lw	a2,-72(s0)
	mv	a1,a4
	mv	a0,a5
	call	bmi2_get_feat_config
	mv	a5,a0
	sb	a5,-33(s0)
	.loc 1 3697 12
	lb	a5,-33(s0)
	bnez	a5,.L241
	.loc 1 3700 17
	lbu	a5,-54(s0)
	sb	a5,-34(s0)
	.loc 1 3703 45
	lbu	a5,-34(s0)
	addi	a4,s0,-32
	add	a5,a4,a5
	lbu	a5,-20(a5)
	slli	a5,a5,24
	srai	a5,a5,24
	.loc 1 3703 51
	andi	a5,a5,-3
	slli	a4,a5,24
	srai	a4,a4,24
	.loc 1 3703 73
	lbu	a5,-65(s0)
	slli	a5,a5,1
	.loc 1 3703 82
	slli	a5,a5,24
	srai	a5,a5,24
	andi	a5,a5,2
	slli	a5,a5,24
	srai	a5,a5,24
	.loc 1 3703 62
	or	a5,a4,a5
	slli	a4,a5,24
	srai	a4,a4,24
	.loc 1 3703 24
	lbu	a5,-34(s0)
	.loc 1 3703 62
	andi	a4,a4,0xff
	.loc 1 3703 30
	addi	a3,s0,-32
	add	a5,a3,a5
	sb	a4,-20(a5)
	.loc 1 3706 20
	addi	a5,s0,-52
	lw	a3,-72(s0)
	li	a2,16
	mv	a1,a5
	li	a0,48
	call	bmi2_set_regs
	mv	a5,a0
	sb	a5,-33(s0)
	.loc 1 3708 16
	lb	a5,-33(s0)
	bnez	a5,.L240
	.loc 1 3708 29 discriminator 1
	lbu	a4,-65(s0)
	li	a5,1
	bne	a4,a5,.L240
	.loc 1 3710 35
	lw	a5,-72(s0)
	lw	a6,60(a5)
	lw	a5,56(a5)
	ori	s4,a5,0
	ori	s5,a6,4
	lw	a5,-72(s0)
	sw	s4,56(a5)
	sw	s5,60(a5)
	j	.L241
.L240:
	.loc 1 3714 35
	lw	a5,-72(s0)
	lw	a6,60(a5)
	lw	a5,56(a5)
	andi	s2,a5,-1
	andi	s3,a6,-5
	lw	a5,-72(s0)
	sw	s2,56(a5)
	sw	s3,60(a5)
	j	.L241
.L238:
	.loc 1 3720 14
	li	a5,-8
	sb	a5,-33(s0)
.L241:
	.loc 1 3723 12
	lb	a5,-33(s0)
	.loc 1 3724 1
	mv	a0,a5
	lw	ra,76(sp)
	.cfi_restore 1
	lw	s0,72(sp)
	.cfi_restore 8
	lw	s2,68(sp)
	.cfi_restore 18
	lw	s3,64(sp)
	.cfi_restore 19
	lw	s4,60(sp)
	.cfi_restore 20
	lw	s5,56(sp)
	.cfi_restore 21
	addi	sp,sp,80
	.cfi_def_cfa_register 2
	jr	ra
	.cfi_endproc
.LFE32:
	.size	set_gyro_self_offset_corr, .-set_gyro_self_offset_corr
	.align	1
	.type	set_gyro_user_gain, @function
set_gyro_user_gain:
.LFB33:
	.loc 1 3731 1
	.cfi_startproc
	addi	sp,sp,-80
	.cfi_def_cfa_offset 80
	sw	ra,76(sp)
	sw	s0,72(sp)
	sw	s2,68(sp)
	sw	s3,64(sp)
	sw	s4,60(sp)
	sw	s5,56(sp)
	.cfi_offset 1, -4
	.cfi_offset 8, -8
	.cfi_offset 18, -12
	.cfi_offset 19, -16
	.cfi_offset 20, -20
	.cfi_offset 21, -24
	addi	s0,sp,80
	.cfi_def_cfa 8, 0
	mv	a5,a0
	sw	a1,-72(s0)
	sb	a5,-65(s0)
	.loc 1 3736 13
	sw	zero,-52(s0)
	sw	zero,-48(s0)
	sw	zero,-44(s0)
	sw	zero,-40(s0)
	.loc 1 3739 13
	sb	zero,-34(s0)
	.loc 1 3745 32
	sb	zero,-56(s0)
	sb	zero,-55(s0)
	sb	zero,-54(s0)
	.loc 1 3748 18
	addi	a5,s0,-56
	lw	a2,-72(s0)
	li	a1,9
	mv	a0,a5
	call	bmi2_extract_input_feat_config
	mv	a5,a0
	sb	a5,-35(s0)
	.loc 1 3749 8
	lbu	a5,-35(s0)
	beqz	a5,.L244
	.loc 1 3752 16
	lbu	a5,-55(s0)
	addi	a4,s0,-52
	lw	a2,-72(s0)
	mv	a1,a4
	mv	a0,a5
	call	bmi2_get_feat_config
	mv	a5,a0
	sb	a5,-33(s0)
	.loc 1 3753 12
	lb	a5,-33(s0)
	bnez	a5,.L247
	.loc 1 3756 36
	lbu	a5,-54(s0)
	.loc 1 3756 17
	addi	a5,a5,5
	sb	a5,-34(s0)
	.loc 1 3759 45
	lbu	a5,-34(s0)
	addi	a4,s0,-32
	add	a5,a4,a5
	lbu	a5,-20(a5)
	slli	a5,a5,24
	srai	a5,a5,24
	.loc 1 3759 51
	andi	a5,a5,-9
	slli	a4,a5,24
	srai	a4,a4,24
	.loc 1 3759 73
	lbu	a5,-65(s0)
	slli	a5,a5,3
	.loc 1 3759 82
	slli	a5,a5,24
	srai	a5,a5,24
	andi	a5,a5,8
	slli	a5,a5,24
	srai	a5,a5,24
	.loc 1 3759 62
	or	a5,a4,a5
	slli	a4,a5,24
	srai	a4,a4,24
	.loc 1 3759 24
	lbu	a5,-34(s0)
	.loc 1 3759 62
	andi	a4,a4,0xff
	.loc 1 3759 30
	addi	a3,s0,-32
	add	a5,a3,a5
	sb	a4,-20(a5)
	.loc 1 3762 20
	addi	a5,s0,-52
	lw	a3,-72(s0)
	li	a2,16
	mv	a1,a5
	li	a0,48
	call	bmi2_set_regs
	mv	a5,a0
	sb	a5,-33(s0)
	.loc 1 3764 16
	lb	a5,-33(s0)
	bnez	a5,.L246
	.loc 1 3764 29 discriminator 1
	lbu	a4,-65(s0)
	li	a5,1
	bne	a4,a5,.L246
	.loc 1 3766 35
	lw	a5,-72(s0)
	lw	a6,60(a5)
	lw	a5,56(a5)
	ori	s4,a5,512
	ori	s5,a6,0
	lw	a5,-72(s0)
	sw	s4,56(a5)
	sw	s5,60(a5)
	j	.L247
.L246:
	.loc 1 3770 35
	lw	a5,-72(s0)
	lw	a6,60(a5)
	lw	a5,56(a5)
	andi	s2,a5,-513
	andi	s3,a6,-1
	lw	a5,-72(s0)
	sw	s2,56(a5)
	sw	s3,60(a5)
	j	.L247
.L244:
	.loc 1 3776 14
	li	a5,-8
	sb	a5,-33(s0)
.L247:
	.loc 1 3779 12
	lb	a5,-33(s0)
	.loc 1 3780 1
	mv	a0,a5
	lw	ra,76(sp)
	.cfi_restore 1
	lw	s0,72(sp)
	.cfi_restore 8
	lw	s2,68(sp)
	.cfi_restore 18
	lw	s3,64(sp)
	.cfi_restore 19
	lw	s4,60(sp)
	.cfi_restore 20
	lw	s5,56(sp)
	.cfi_restore 21
	addi	sp,sp,80
	.cfi_def_cfa_register 2
	jr	ra
	.cfi_endproc
.LFE33:
	.size	set_gyro_user_gain, .-set_gyro_user_gain
	.align	1
	.type	set_any_motion_config, @function
set_any_motion_config:
.LFB34:
	.loc 1 3787 1
	.cfi_startproc
	addi	sp,sp,-64
	.cfi_def_cfa_offset 64
	sw	ra,60(sp)
	sw	s0,56(sp)
	.cfi_offset 1, -4
	.cfi_offset 8, -8
	addi	s0,sp,64
	.cfi_def_cfa 8, 0
	sw	a0,-52(s0)
	sw	a1,-56(s0)
	.loc 1 3792 13
	sw	zero,-44(s0)
	sw	zero,-40(s0)
	sw	zero,-36(s0)
	sw	zero,-32(s0)
	.loc 1 3795 13
	sb	zero,-19(s0)
	.loc 1 3798 13
	sb	zero,-18(s0)
	.loc 1 3804 32
	sb	zero,-48(s0)
	sb	zero,-47(s0)
	sb	zero,-46(s0)
	.loc 1 3807 15
	addi	a5,s0,-44
	sw	a5,-24(s0)
	.loc 1 3810 18
	addi	a5,s0,-48
	lw	a2,-56(s0)
	li	a1,4
	mv	a0,a5
	call	bmi2_extract_input_feat_config
	mv	a5,a0
	sb	a5,-25(s0)
	.loc 1 3811 8
	lbu	a5,-25(s0)
	beqz	a5,.L250
	.loc 1 3814 16
	lbu	a5,-47(s0)
	addi	a4,s0,-44
	lw	a2,-56(s0)
	mv	a1,a4
	mv	a0,a5
	call	bmi2_get_feat_config
	mv	a5,a0
	sb	a5,-17(s0)
	.loc 1 3815 12
	lb	a5,-17(s0)
	bnez	a5,.L254
	.loc 1 3818 17
	lbu	a5,-46(s0)
	sb	a5,-19(s0)
	.loc 1 3821 17
	lbu	a5,-19(s0)
	srli	a5,a5,1
	sb	a5,-19(s0)
	.loc 1 3824 42
	lbu	a5,-19(s0)
	slli	a5,a5,1
	lw	a4,-24(s0)
	add	a5,a4,a5
	.loc 1 3824 33
	lhu	a5,0(a5)
	slli	a4,a5,16
	srai	a4,a4,16
	.loc 1 3824 49
	li	a5,-8192
	and	a5,a4,a5
	slli	a4,a5,16
	srai	a4,a4,16
	.loc 1 3824 71
	lw	a5,-52(s0)
	lhu	a5,0(a5)
	slli	a3,a5,16
	srai	a3,a3,16
	.loc 1 3824 82
	li	a5,8192
	addi	a5,a5,-1
	and	a5,a3,a5
	slli	a5,a5,16
	srai	a5,a5,16
	.loc 1 3824 62
	or	a5,a4,a5
	slli	a3,a5,16
	srai	a3,a3,16
	.loc 1 3824 22
	lbu	a5,-19(s0)
	slli	a5,a5,1
	lw	a4,-24(s0)
	add	a5,a4,a5
	.loc 1 3824 62
	slli	a4,a3,16
	srli	a4,a4,16
	.loc 1 3824 29
	sh	a4,0(a5)
	.loc 1 3827 42
	lbu	a5,-19(s0)
	slli	a5,a5,1
	lw	a4,-24(s0)
	add	a5,a4,a5
	.loc 1 3827 33
	lhu	a5,0(a5)
	slli	a4,a5,16
	srai	a4,a4,16
	.loc 1 3827 49
	li	a5,-8192
	addi	a5,a5,-1
	and	a5,a4,a5
	slli	a4,a5,16
	srai	a4,a4,16
	.loc 1 3827 72
	lw	a5,-52(s0)
	lhu	a5,4(a5)
	.loc 1 3827 83
	slli	a5,a5,13
	.loc 1 3827 92
	slli	a3,a5,16
	srai	a3,a3,16
	li	a5,8192
	and	a5,a3,a5
	slli	a5,a5,16
	srai	a5,a5,16
	.loc 1 3827 62
	or	a5,a4,a5
	slli	a3,a5,16
	srai	a3,a3,16
	.loc 1 3827 22
	lbu	a5,-19(s0)
	slli	a5,a5,1
	lw	a4,-24(s0)
	add	a5,a4,a5
	.loc 1 3827 62
	slli	a4,a3,16
	srli	a4,a4,16
	.loc 1 3827 29
	sh	a4,0(a5)
	.loc 1 3830 42
	lbu	a5,-19(s0)
	slli	a5,a5,1
	lw	a4,-24(s0)
	add	a5,a4,a5
	.loc 1 3830 33
	lhu	a5,0(a5)
	slli	a4,a5,16
	srai	a4,a4,16
	.loc 1 3830 49
	li	a5,-16384
	addi	a5,a5,-1
	and	a5,a4,a5
	slli	a4,a5,16
	srai	a4,a4,16
	.loc 1 3830 72
	lw	a5,-52(s0)
	lhu	a5,6(a5)
	.loc 1 3830 83
	slli	a5,a5,14
	.loc 1 3830 92
	slli	a3,a5,16
	srai	a3,a3,16
	li	a5,16384
	and	a5,a3,a5
	slli	a5,a5,16
	srai	a5,a5,16
	.loc 1 3830 62
	or	a5,a4,a5
	slli	a3,a5,16
	srai	a3,a3,16
	.loc 1 3830 22
	lbu	a5,-19(s0)
	slli	a5,a5,1
	lw	a4,-24(s0)
	add	a5,a4,a5
	.loc 1 3830 62
	slli	a4,a3,16
	srli	a4,a4,16
	.loc 1 3830 29
	sh	a4,0(a5)
	.loc 1 3833 42
	lbu	a5,-19(s0)
	slli	a5,a5,1
	lw	a4,-24(s0)
	add	a5,a4,a5
	.loc 1 3833 33
	lhu	a5,0(a5)
	slli	a4,a5,16
	srai	a4,a4,16
	.loc 1 3833 49
	li	a5,32768
	addi	a5,a5,-1
	and	a5,a4,a5
	slli	a4,a5,16
	srai	a4,a4,16
	.loc 1 3833 72
	lw	a5,-52(s0)
	lhu	a5,8(a5)
	.loc 1 3833 83
	slli	a5,a5,15
	.loc 1 3833 62
	slli	a5,a5,16
	srai	a5,a5,16
	or	a5,a4,a5
	slli	a3,a5,16
	srai	a3,a3,16
	.loc 1 3833 22
	lbu	a5,-19(s0)
	slli	a5,a5,1
	lw	a4,-24(s0)
	add	a5,a4,a5
	.loc 1 3833 62
	slli	a4,a3,16
	srli	a4,a4,16
	.loc 1 3833 29
	sh	a4,0(a5)
	.loc 1 3836 16
	lbu	a5,-19(s0)
	addi	a5,a5,1
	sb	a5,-19(s0)
	.loc 1 3839 42
	lbu	a5,-19(s0)
	slli	a5,a5,1
	lw	a4,-24(s0)
	add	a5,a4,a5
	.loc 1 3839 33
	lhu	a5,0(a5)
	slli	a5,a5,16
	srai	a5,a5,16
	.loc 1 3839 49
	andi	a5,a5,-2048
	slli	a4,a5,16
	srai	a4,a4,16
	.loc 1 3839 71
	lw	a5,-52(s0)
	lhu	a5,2(a5)
	slli	a5,a5,16
	srai	a5,a5,16
	.loc 1 3839 83
	andi	a5,a5,2047
	slli	a5,a5,16
	srai	a5,a5,16
	.loc 1 3839 62
	or	a5,a4,a5
	slli	a3,a5,16
	srai	a3,a3,16
	.loc 1 3839 22
	lbu	a5,-19(s0)
	slli	a5,a5,1
	lw	a4,-24(s0)
	add	a5,a4,a5
	.loc 1 3839 62
	slli	a4,a3,16
	srli	a4,a4,16
	.loc 1 3839 29
	sh	a4,0(a5)
	.loc 1 3842 16
	lbu	a5,-19(s0)
	addi	a5,a5,1
	sb	a5,-19(s0)
	.loc 1 3845 19
	lbu	a5,-19(s0)
	slli	a5,a5,1
	andi	a4,a5,0xff
	.loc 1 3845 54
	lbu	a5,-46(s0)
	.loc 1 3845 17
	sub	a5,a4,a5
	sb	a5,-19(s0)
	.loc 1 3848 24
	sb	zero,-18(s0)
	.loc 1 3848 13
	j	.L252
.L253:
	.loc 1 3851 75 discriminator 3
	lbu	a5,-46(s0)
	mv	a4,a5
	.loc 1 3851 87 discriminator 3
	lbu	a5,-18(s0)
	add	a5,a4,a5
	lw	a4,-24(s0)
	add	a4,a4,a5
	.loc 1 3850 43 discriminator 3
	lbu	a5,-46(s0)
	mv	a3,a5
	.loc 1 3850 55 discriminator 3
	lbu	a5,-18(s0)
	add	a5,a3,a5
	.loc 1 3851 38 discriminator 3
	lbu	a4,0(a4)
	.loc 1 3851 36 discriminator 3
	addi	a3,s0,-16
	add	a5,a3,a5
	sb	a4,-28(a5)
	.loc 1 3848 47 discriminator 3
	lbu	a5,-18(s0)
	addi	a5,a5,1
	sb	a5,-18(s0)
.L252:
	.loc 1 3848 13 discriminator 1
	lbu	a4,-18(s0)
	lbu	a5,-19(s0)
	bltu	a4,a5,.L253
	.loc 1 3855 20
	addi	a5,s0,-44
	lw	a3,-56(s0)
	li	a2,16
	mv	a1,a5
	li	a0,48
	call	bmi2_set_regs
	mv	a5,a0
	sb	a5,-17(s0)
	j	.L254
.L250:
	.loc 1 3860 14
	li	a5,-8
	sb	a5,-17(s0)
.L254:
	.loc 1 3863 12
	lb	a5,-17(s0)
	.loc 1 3864 1
	mv	a0,a5
	lw	ra,60(sp)
	.cfi_restore 1
	lw	s0,56(sp)
	.cfi_restore 8
	addi	sp,sp,64
	.cfi_def_cfa_register 2
	jr	ra
	.cfi_endproc
.LFE34:
	.size	set_any_motion_config, .-set_any_motion_config
	.align	1
	.type	set_no_motion_config, @function
set_no_motion_config:
.LFB35:
	.loc 1 3871 1
	.cfi_startproc
	addi	sp,sp,-64
	.cfi_def_cfa_offset 64
	sw	ra,60(sp)
	sw	s0,56(sp)
	.cfi_offset 1, -4
	.cfi_offset 8, -8
	addi	s0,sp,64
	.cfi_def_cfa 8, 0
	sw	a0,-52(s0)
	sw	a1,-56(s0)
	.loc 1 3876 13
	sw	zero,-44(s0)
	sw	zero,-40(s0)
	sw	zero,-36(s0)
	sw	zero,-32(s0)
	.loc 1 3879 13
	sb	zero,-19(s0)
	.loc 1 3882 13
	sb	zero,-18(s0)
	.loc 1 3888 32
	sb	zero,-48(s0)
	sb	zero,-47(s0)
	sb	zero,-46(s0)
	.loc 1 3891 15
	addi	a5,s0,-44
	sw	a5,-24(s0)
	.loc 1 3894 18
	addi	a5,s0,-48
	lw	a2,-56(s0)
	li	a1,5
	mv	a0,a5
	call	bmi2_extract_input_feat_config
	mv	a5,a0
	sb	a5,-25(s0)
	.loc 1 3895 8
	lbu	a5,-25(s0)
	beqz	a5,.L257
	.loc 1 3898 16
	lbu	a5,-47(s0)
	addi	a4,s0,-44
	lw	a2,-56(s0)
	mv	a1,a4
	mv	a0,a5
	call	bmi2_get_feat_config
	mv	a5,a0
	sb	a5,-17(s0)
	.loc 1 3899 12
	lb	a5,-17(s0)
	bnez	a5,.L261
	.loc 1 3902 17
	lbu	a5,-46(s0)
	sb	a5,-19(s0)
	.loc 1 3905 17
	lbu	a5,-19(s0)
	srli	a5,a5,1
	sb	a5,-19(s0)
	.loc 1 3908 42
	lbu	a5,-19(s0)
	slli	a5,a5,1
	lw	a4,-24(s0)
	add	a5,a4,a5
	.loc 1 3908 33
	lhu	a5,0(a5)
	slli	a4,a5,16
	srai	a4,a4,16
	.loc 1 3908 49
	li	a5,-8192
	and	a5,a4,a5
	slli	a4,a5,16
	srai	a4,a4,16
	.loc 1 3908 71
	lw	a5,-52(s0)
	lhu	a5,0(a5)
	slli	a3,a5,16
	srai	a3,a3,16
	.loc 1 3908 82
	li	a5,8192
	addi	a5,a5,-1
	and	a5,a3,a5
	slli	a5,a5,16
	srai	a5,a5,16
	.loc 1 3908 62
	or	a5,a4,a5
	slli	a3,a5,16
	srai	a3,a3,16
	.loc 1 3908 22
	lbu	a5,-19(s0)
	slli	a5,a5,1
	lw	a4,-24(s0)
	add	a5,a4,a5
	.loc 1 3908 62
	slli	a4,a3,16
	srli	a4,a4,16
	.loc 1 3908 29
	sh	a4,0(a5)
	.loc 1 3911 42
	lbu	a5,-19(s0)
	slli	a5,a5,1
	lw	a4,-24(s0)
	add	a5,a4,a5
	.loc 1 3911 33
	lhu	a5,0(a5)
	slli	a4,a5,16
	srai	a4,a4,16
	.loc 1 3911 49
	li	a5,-8192
	addi	a5,a5,-1
	and	a5,a4,a5
	slli	a4,a5,16
	srai	a4,a4,16
	.loc 1 3911 72
	lw	a5,-52(s0)
	lhu	a5,4(a5)
	.loc 1 3911 83
	slli	a5,a5,13
	.loc 1 3911 92
	slli	a3,a5,16
	srai	a3,a3,16
	li	a5,8192
	and	a5,a3,a5
	slli	a5,a5,16
	srai	a5,a5,16
	.loc 1 3911 62
	or	a5,a4,a5
	slli	a3,a5,16
	srai	a3,a3,16
	.loc 1 3911 22
	lbu	a5,-19(s0)
	slli	a5,a5,1
	lw	a4,-24(s0)
	add	a5,a4,a5
	.loc 1 3911 62
	slli	a4,a3,16
	srli	a4,a4,16
	.loc 1 3911 29
	sh	a4,0(a5)
	.loc 1 3914 42
	lbu	a5,-19(s0)
	slli	a5,a5,1
	lw	a4,-24(s0)
	add	a5,a4,a5
	.loc 1 3914 33
	lhu	a5,0(a5)
	slli	a4,a5,16
	srai	a4,a4,16
	.loc 1 3914 49
	li	a5,-16384
	addi	a5,a5,-1
	and	a5,a4,a5
	slli	a4,a5,16
	srai	a4,a4,16
	.loc 1 3914 72
	lw	a5,-52(s0)
	lhu	a5,6(a5)
	.loc 1 3914 83
	slli	a5,a5,14
	.loc 1 3914 92
	slli	a3,a5,16
	srai	a3,a3,16
	li	a5,16384
	and	a5,a3,a5
	slli	a5,a5,16
	srai	a5,a5,16
	.loc 1 3914 62
	or	a5,a4,a5
	slli	a3,a5,16
	srai	a3,a3,16
	.loc 1 3914 22
	lbu	a5,-19(s0)
	slli	a5,a5,1
	lw	a4,-24(s0)
	add	a5,a4,a5
	.loc 1 3914 62
	slli	a4,a3,16
	srli	a4,a4,16
	.loc 1 3914 29
	sh	a4,0(a5)
	.loc 1 3917 42
	lbu	a5,-19(s0)
	slli	a5,a5,1
	lw	a4,-24(s0)
	add	a5,a4,a5
	.loc 1 3917 33
	lhu	a5,0(a5)
	slli	a4,a5,16
	srai	a4,a4,16
	.loc 1 3917 49
	li	a5,32768
	addi	a5,a5,-1
	and	a5,a4,a5
	slli	a4,a5,16
	srai	a4,a4,16
	.loc 1 3917 72
	lw	a5,-52(s0)
	lhu	a5,8(a5)
	.loc 1 3917 83
	slli	a5,a5,15
	.loc 1 3917 62
	slli	a5,a5,16
	srai	a5,a5,16
	or	a5,a4,a5
	slli	a3,a5,16
	srai	a3,a3,16
	.loc 1 3917 22
	lbu	a5,-19(s0)
	slli	a5,a5,1
	lw	a4,-24(s0)
	add	a5,a4,a5
	.loc 1 3917 62
	slli	a4,a3,16
	srli	a4,a4,16
	.loc 1 3917 29
	sh	a4,0(a5)
	.loc 1 3920 16
	lbu	a5,-19(s0)
	addi	a5,a5,1
	sb	a5,-19(s0)
	.loc 1 3923 42
	lbu	a5,-19(s0)
	slli	a5,a5,1
	lw	a4,-24(s0)
	add	a5,a4,a5
	.loc 1 3923 33
	lhu	a5,0(a5)
	slli	a5,a5,16
	srai	a5,a5,16
	.loc 1 3923 49
	andi	a5,a5,-2048
	slli	a4,a5,16
	srai	a4,a4,16
	.loc 1 3923 71
	lw	a5,-52(s0)
	lhu	a5,2(a5)
	slli	a5,a5,16
	srai	a5,a5,16
	.loc 1 3923 83
	andi	a5,a5,2047
	slli	a5,a5,16
	srai	a5,a5,16
	.loc 1 3923 62
	or	a5,a4,a5
	slli	a3,a5,16
	srai	a3,a3,16
	.loc 1 3923 22
	lbu	a5,-19(s0)
	slli	a5,a5,1
	lw	a4,-24(s0)
	add	a5,a4,a5
	.loc 1 3923 62
	slli	a4,a3,16
	srli	a4,a4,16
	.loc 1 3923 29
	sh	a4,0(a5)
	.loc 1 3926 16
	lbu	a5,-19(s0)
	addi	a5,a5,1
	sb	a5,-19(s0)
	.loc 1 3929 19
	lbu	a5,-19(s0)
	slli	a5,a5,1
	andi	a4,a5,0xff
	.loc 1 3929 53
	lbu	a5,-46(s0)
	.loc 1 3929 17
	sub	a5,a4,a5
	sb	a5,-19(s0)
	.loc 1 3932 24
	sb	zero,-18(s0)
	.loc 1 3932 13
	j	.L259
.L260:
	.loc 1 3935 74 discriminator 3
	lbu	a5,-46(s0)
	mv	a4,a5
	.loc 1 3935 86 discriminator 3
	lbu	a5,-18(s0)
	add	a5,a4,a5
	lw	a4,-24(s0)
	add	a4,a4,a5
	.loc 1 3934 42 discriminator 3
	lbu	a5,-46(s0)
	mv	a3,a5
	.loc 1 3934 54 discriminator 3
	lbu	a5,-18(s0)
	add	a5,a3,a5
	.loc 1 3935 38 discriminator 3
	lbu	a4,0(a4)
	.loc 1 3935 36 discriminator 3
	addi	a3,s0,-16
	add	a5,a3,a5
	sb	a4,-28(a5)
	.loc 1 3932 47 discriminator 3
	lbu	a5,-18(s0)
	addi	a5,a5,1
	sb	a5,-18(s0)
.L259:
	.loc 1 3932 13 discriminator 1
	lbu	a4,-18(s0)
	lbu	a5,-19(s0)
	bltu	a4,a5,.L260
	.loc 1 3939 20
	addi	a5,s0,-44
	lw	a3,-56(s0)
	li	a2,16
	mv	a1,a5
	li	a0,48
	call	bmi2_set_regs
	mv	a5,a0
	sb	a5,-17(s0)
	j	.L261
.L257:
	.loc 1 3944 14
	li	a5,-8
	sb	a5,-17(s0)
.L261:
	.loc 1 3947 12
	lb	a5,-17(s0)
	.loc 1 3948 1
	mv	a0,a5
	lw	ra,60(sp)
	.cfi_restore 1
	lw	s0,56(sp)
	.cfi_restore 8
	addi	sp,sp,64
	.cfi_def_cfa_register 2
	jr	ra
	.cfi_endproc
.LFE35:
	.size	set_no_motion_config, .-set_no_motion_config
	.align	1
	.type	set_sig_motion_config, @function
set_sig_motion_config:
.LFB36:
	.loc 1 3955 1
	.cfi_startproc
	addi	sp,sp,-64
	.cfi_def_cfa_offset 64
	sw	ra,60(sp)
	sw	s0,56(sp)
	.cfi_offset 1, -4
	.cfi_offset 8, -8
	addi	s0,sp,64
	.cfi_def_cfa 8, 0
	sw	a0,-52(s0)
	sw	a1,-56(s0)
	.loc 1 3960 13
	sw	zero,-44(s0)
	sw	zero,-40(s0)
	sw	zero,-36(s0)
	sw	zero,-32(s0)
	.loc 1 3963 13
	sb	zero,-19(s0)
	.loc 1 3966 13
	sb	zero,-18(s0)
	.loc 1 3972 32
	sb	zero,-48(s0)
	sb	zero,-47(s0)
	sb	zero,-46(s0)
	.loc 1 3975 15
	addi	a5,s0,-44
	sw	a5,-24(s0)
	.loc 1 3978 18
	addi	a5,s0,-48
	lw	a2,-56(s0)
	li	a1,3
	mv	a0,a5
	call	bmi2_extract_input_feat_config
	mv	a5,a0
	sb	a5,-25(s0)
	.loc 1 3979 8
	lbu	a5,-25(s0)
	beqz	a5,.L264
	.loc 1 3982 16
	lbu	a5,-47(s0)
	addi	a4,s0,-44
	lw	a2,-56(s0)
	mv	a1,a4
	mv	a0,a5
	call	bmi2_get_feat_config
	mv	a5,a0
	sb	a5,-17(s0)
	.loc 1 3983 12
	lb	a5,-17(s0)
	bnez	a5,.L268
	.loc 1 3986 17
	lbu	a5,-46(s0)
	sb	a5,-19(s0)
	.loc 1 3989 17
	lbu	a5,-19(s0)
	srli	a5,a5,1
	sb	a5,-19(s0)
	.loc 1 3992 22
	lbu	a5,-19(s0)
	slli	a5,a5,1
	lw	a4,-24(s0)
	add	a5,a4,a5
	.loc 1 3992 71
	lw	a4,-52(s0)
	lhu	a4,0(a4)
	.loc 1 3992 29
	sh	a4,0(a5)
	.loc 1 3995 19
	lbu	a5,-19(s0)
	slli	a5,a5,1
	andi	a4,a5,0xff
	.loc 1 3995 54
	lbu	a5,-46(s0)
	.loc 1 3995 17
	sub	a5,a4,a5
	sb	a5,-19(s0)
	.loc 1 3998 24
	sb	zero,-18(s0)
	.loc 1 3998 13
	j	.L266
.L267:
	.loc 1 4001 75 discriminator 3
	lbu	a5,-46(s0)
	mv	a4,a5
	.loc 1 4001 87 discriminator 3
	lbu	a5,-18(s0)
	add	a5,a4,a5
	lw	a4,-24(s0)
	add	a4,a4,a5
	.loc 1 4000 43 discriminator 3
	lbu	a5,-46(s0)
	mv	a3,a5
	.loc 1 4000 55 discriminator 3
	lbu	a5,-18(s0)
	add	a5,a3,a5
	.loc 1 4001 38 discriminator 3
	lbu	a4,0(a4)
	.loc 1 4001 36 discriminator 3
	addi	a3,s0,-16
	add	a5,a3,a5
	sb	a4,-28(a5)
	.loc 1 3998 47 discriminator 3
	lbu	a5,-18(s0)
	addi	a5,a5,1
	sb	a5,-18(s0)
.L266:
	.loc 1 3998 13 discriminator 1
	lbu	a4,-18(s0)
	lbu	a5,-19(s0)
	bltu	a4,a5,.L267
	.loc 1 4005 20
	addi	a5,s0,-44
	lw	a3,-56(s0)
	li	a2,16
	mv	a1,a5
	li	a0,48
	call	bmi2_set_regs
	mv	a5,a0
	sb	a5,-17(s0)
	j	.L268
.L264:
	.loc 1 4010 14
	li	a5,-8
	sb	a5,-17(s0)
.L268:
	.loc 1 4013 12
	lb	a5,-17(s0)
	.loc 1 4014 1
	mv	a0,a5
	lw	ra,60(sp)
	.cfi_restore 1
	lw	s0,56(sp)
	.cfi_restore 8
	addi	sp,sp,64
	.cfi_def_cfa_register 2
	jr	ra
	.cfi_endproc
.LFE36:
	.size	set_sig_motion_config, .-set_sig_motion_config
	.align	1
	.type	set_step_config, @function
set_step_config:
.LFB37:
	.loc 1 4020 1
	.cfi_startproc
	addi	sp,sp,-64
	.cfi_def_cfa_offset 64
	sw	ra,60(sp)
	sw	s0,56(sp)
	.cfi_offset 1, -4
	.cfi_offset 8, -8
	addi	s0,sp,64
	.cfi_def_cfa 8, 0
	sw	a0,-52(s0)
	sw	a1,-56(s0)
	.loc 1 4025 13
	sw	zero,-44(s0)
	sw	zero,-40(s0)
	sw	zero,-36(s0)
	sw	zero,-32(s0)
	.loc 1 4028 13
	sb	zero,-19(s0)
	.loc 1 4031 13
	sb	zero,-18(s0)
	.loc 1 4037 32
	sb	zero,-48(s0)
	sb	zero,-47(s0)
	sb	zero,-46(s0)
	.loc 1 4040 15
	addi	a5,s0,-44
	sw	a5,-24(s0)
	.loc 1 4043 18
	addi	a5,s0,-48
	lw	a2,-56(s0)
	li	a1,7
	mv	a0,a5
	call	bmi2_extract_input_feat_config
	mv	a5,a0
	sb	a5,-25(s0)
	.loc 1 4044 8
	lbu	a5,-25(s0)
	beqz	a5,.L271
	.loc 1 4047 16
	lbu	a5,-47(s0)
	addi	a4,s0,-44
	lw	a2,-56(s0)
	mv	a1,a4
	mv	a0,a5
	call	bmi2_get_feat_config
	mv	a5,a0
	sb	a5,-17(s0)
	.loc 1 4048 12
	lb	a5,-17(s0)
	bnez	a5,.L275
	.loc 1 4051 17
	lbu	a5,-46(s0)
	sb	a5,-19(s0)
	.loc 1 4054 17
	lbu	a5,-19(s0)
	srli	a5,a5,1
	sb	a5,-19(s0)
	.loc 1 4057 42
	lbu	a5,-19(s0)
	slli	a5,a5,1
	lw	a4,-24(s0)
	add	a5,a4,a5
	.loc 1 4057 33
	lhu	a5,0(a5)
	slli	a5,a5,16
	srai	a5,a5,16
	.loc 1 4057 49
	andi	a5,a5,-1024
	slli	a4,a5,16
	srai	a4,a4,16
	.loc 1 4057 71
	lw	a5,-52(s0)
	lhu	a5,0(a5)
	slli	a5,a5,16
	srai	a5,a5,16
	.loc 1 4057 89
	andi	a5,a5,1023
	slli	a5,a5,16
	srai	a5,a5,16
	.loc 1 4057 62
	or	a5,a4,a5
	slli	a3,a5,16
	srai	a3,a3,16
	.loc 1 4057 22
	lbu	a5,-19(s0)
	slli	a5,a5,1
	lw	a4,-24(s0)
	add	a5,a4,a5
	.loc 1 4057 62
	slli	a4,a3,16
	srli	a4,a4,16
	.loc 1 4057 29
	sh	a4,0(a5)
	.loc 1 4060 42
	lbu	a5,-19(s0)
	slli	a5,a5,1
	lw	a4,-24(s0)
	add	a5,a4,a5
	.loc 1 4060 33
	lhu	a5,0(a5)
	slli	a5,a5,16
	srai	a5,a5,16
	.loc 1 4060 49
	andi	a5,a5,-1025
	slli	a4,a5,16
	srai	a4,a4,16
	.loc 1 4060 72
	lw	a5,-52(s0)
	lhu	a5,2(a5)
	.loc 1 4060 88
	slli	a5,a5,10
	.loc 1 4060 97
	slli	a5,a5,16
	srai	a5,a5,16
	andi	a5,a5,1024
	slli	a5,a5,16
	srai	a5,a5,16
	.loc 1 4060 62
	or	a5,a4,a5
	slli	a3,a5,16
	srai	a3,a3,16
	.loc 1 4060 22
	lbu	a5,-19(s0)
	slli	a5,a5,1
	lw	a4,-24(s0)
	add	a5,a4,a5
	.loc 1 4060 62
	slli	a4,a3,16
	srli	a4,a4,16
	.loc 1 4060 29
	sh	a4,0(a5)
	.loc 1 4065 16
	lbu	a5,-19(s0)
	addi	a5,a5,1
	sb	a5,-19(s0)
	.loc 1 4068 42
	lbu	a5,-19(s0)
	slli	a5,a5,1
	lw	a4,-24(s0)
	add	a5,a4,a5
	.loc 1 4068 33
	lhu	a5,0(a5)
	slli	a5,a5,16
	srai	a5,a5,16
	.loc 1 4068 49
	andi	a5,a5,255
	slli	a4,a5,16
	srai	a4,a4,16
	.loc 1 4068 72
	lw	a5,-52(s0)
	lbu	a5,4(a5)
	.loc 1 4068 91
	slli	a5,a5,8
	.loc 1 4068 62
	slli	a5,a5,16
	srai	a5,a5,16
	or	a5,a4,a5
	slli	a3,a5,16
	srai	a3,a3,16
	.loc 1 4068 22
	lbu	a5,-19(s0)
	slli	a5,a5,1
	lw	a4,-24(s0)
	add	a5,a4,a5
	.loc 1 4068 62
	slli	a4,a3,16
	srli	a4,a4,16
	.loc 1 4068 29
	sh	a4,0(a5)
	.loc 1 4071 16
	lbu	a5,-19(s0)
	addi	a5,a5,1
	sb	a5,-19(s0)
	.loc 1 4074 19
	lbu	a5,-19(s0)
	slli	a5,a5,1
	andi	a4,a5,0xff
	.loc 1 4074 57
	lbu	a5,-46(s0)
	.loc 1 4074 17
	sub	a5,a4,a5
	sb	a5,-19(s0)
	.loc 1 4077 24
	sb	zero,-18(s0)
	.loc 1 4077 13
	j	.L273
.L274:
	.loc 1 4080 78 discriminator 3
	lbu	a5,-46(s0)
	mv	a4,a5
	.loc 1 4080 90 discriminator 3
	lbu	a5,-18(s0)
	add	a5,a4,a5
	lw	a4,-24(s0)
	add	a4,a4,a5
	.loc 1 4079 46 discriminator 3
	lbu	a5,-46(s0)
	mv	a3,a5
	.loc 1 4079 58 discriminator 3
	lbu	a5,-18(s0)
	add	a5,a3,a5
	.loc 1 4080 38 discriminator 3
	lbu	a4,0(a4)
	.loc 1 4080 36 discriminator 3
	addi	a3,s0,-16
	add	a5,a3,a5
	sb	a4,-28(a5)
	.loc 1 4077 47 discriminator 3
	lbu	a5,-18(s0)
	addi	a5,a5,1
	sb	a5,-18(s0)
.L273:
	.loc 1 4077 13 discriminator 1
	lbu	a4,-18(s0)
	lbu	a5,-19(s0)
	bltu	a4,a5,.L274
	.loc 1 4084 20
	addi	a5,s0,-44
	lw	a3,-56(s0)
	li	a2,16
	mv	a1,a5
	li	a0,48
	call	bmi2_set_regs
	mv	a5,a0
	sb	a5,-17(s0)
	j	.L275
.L271:
	.loc 1 4089 14
	li	a5,-8
	sb	a5,-17(s0)
.L275:
	.loc 1 4092 12
	lb	a5,-17(s0)
	.loc 1 4093 1
	mv	a0,a5
	lw	ra,60(sp)
	.cfi_restore 1
	lw	s0,56(sp)
	.cfi_restore 8
	addi	sp,sp,64
	.cfi_def_cfa_register 2
	jr	ra
	.cfi_endproc
.LFE37:
	.size	set_step_config, .-set_step_config
	.align	1
	.type	set_tap_detector_config, @function
set_tap_detector_config:
.LFB38:
	.loc 1 4099 1
	.cfi_startproc
	addi	sp,sp,-48
	.cfi_def_cfa_offset 48
	sw	ra,44(sp)
	sw	s0,40(sp)
	.cfi_offset 1, -4
	.cfi_offset 8, -8
	addi	s0,sp,48
	.cfi_def_cfa 8, 0
	sw	a0,-36(s0)
	sw	a1,-40(s0)
	.loc 1 4103 15
	lw	a5,-40(s0)
	lw	a5,96(a5)
	.loc 1 4103 12
	lw	a1,-40(s0)
	lw	a0,-36(s0)
	jalr	a5
.LVL1:
	mv	a5,a0
	sb	a5,-17(s0)
	.loc 1 4105 12
	lb	a5,-17(s0)
	.loc 1 4106 1
	mv	a0,a5
	lw	ra,44(sp)
	.cfi_restore 1
	lw	s0,40(sp)
	.cfi_restore 8
	addi	sp,sp,48
	.cfi_def_cfa_register 2
	jr	ra
	.cfi_endproc
.LFE38:
	.size	set_tap_detector_config, .-set_tap_detector_config
	.align	1
	.type	set_orient_config, @function
set_orient_config:
.LFB39:
	.loc 1 4114 1
	.cfi_startproc
	addi	sp,sp,-64
	.cfi_def_cfa_offset 64
	sw	ra,60(sp)
	sw	s0,56(sp)
	.cfi_offset 1, -4
	.cfi_offset 8, -8
	addi	s0,sp,64
	.cfi_def_cfa 8, 0
	sw	a0,-52(s0)
	sw	a1,-56(s0)
	.loc 1 4119 13
	sw	zero,-44(s0)
	sw	zero,-40(s0)
	sw	zero,-36(s0)
	sw	zero,-32(s0)
	.loc 1 4122 13
	sb	zero,-19(s0)
	.loc 1 4125 13
	sb	zero,-18(s0)
	.loc 1 4131 32
	sb	zero,-48(s0)
	sb	zero,-47(s0)
	sb	zero,-46(s0)
	.loc 1 4134 15
	addi	a5,s0,-44
	sw	a5,-24(s0)
	.loc 1 4137 18
	addi	a5,s0,-48
	lw	a2,-56(s0)
	li	a1,14
	mv	a0,a5
	call	bmi2_extract_input_feat_config
	mv	a5,a0
	sb	a5,-25(s0)
	.loc 1 4138 8
	lbu	a5,-25(s0)
	beqz	a5,.L280
	.loc 1 4141 16
	lbu	a5,-47(s0)
	addi	a4,s0,-44
	lw	a2,-56(s0)
	mv	a1,a4
	mv	a0,a5
	call	bmi2_get_feat_config
	mv	a5,a0
	sb	a5,-17(s0)
	.loc 1 4142 12
	lb	a5,-17(s0)
	bnez	a5,.L284
	.loc 1 4145 17
	lbu	a5,-46(s0)
	sb	a5,-19(s0)
	.loc 1 4148 17
	lbu	a5,-19(s0)
	srli	a5,a5,1
	sb	a5,-19(s0)
	.loc 1 4151 42
	lbu	a5,-19(s0)
	slli	a5,a5,1
	lw	a4,-24(s0)
	add	a5,a4,a5
	.loc 1 4151 33
	lhu	a5,0(a5)
	slli	a5,a5,16
	srai	a5,a5,16
	.loc 1 4151 49
	andi	a5,a5,-3
	slli	a4,a5,16
	srai	a4,a4,16
	.loc 1 4151 72
	lw	a5,-52(s0)
	lhu	a5,0(a5)
	.loc 1 4151 80
	slli	a5,a5,1
	.loc 1 4151 89
	slli	a5,a5,16
	srai	a5,a5,16
	andi	a5,a5,2
	slli	a5,a5,16
	srai	a5,a5,16
	.loc 1 4151 62
	or	a5,a4,a5
	slli	a3,a5,16
	srai	a3,a3,16
	.loc 1 4151 22
	lbu	a5,-19(s0)
	slli	a5,a5,1
	lw	a4,-24(s0)
	add	a5,a4,a5
	.loc 1 4151 62
	slli	a4,a3,16
	srli	a4,a4,16
	.loc 1 4151 29
	sh	a4,0(a5)
	.loc 1 4154 42
	lbu	a5,-19(s0)
	slli	a5,a5,1
	lw	a4,-24(s0)
	add	a5,a4,a5
	.loc 1 4154 33
	lhu	a5,0(a5)
	slli	a5,a5,16
	srai	a5,a5,16
	.loc 1 4154 49
	andi	a5,a5,-13
	slli	a4,a5,16
	srai	a4,a4,16
	.loc 1 4154 72
	lw	a5,-52(s0)
	lhu	a5,2(a5)
	.loc 1 4154 79
	slli	a5,a5,2
	.loc 1 4154 88
	slli	a5,a5,16
	srai	a5,a5,16
	andi	a5,a5,12
	slli	a5,a5,16
	srai	a5,a5,16
	.loc 1 4154 62
	or	a5,a4,a5
	slli	a3,a5,16
	srai	a3,a3,16
	.loc 1 4154 22
	lbu	a5,-19(s0)
	slli	a5,a5,1
	lw	a4,-24(s0)
	add	a5,a4,a5
	.loc 1 4154 62
	slli	a4,a3,16
	srli	a4,a4,16
	.loc 1 4154 29
	sh	a4,0(a5)
	.loc 1 4157 42
	lbu	a5,-19(s0)
	slli	a5,a5,1
	lw	a4,-24(s0)
	add	a5,a4,a5
	.loc 1 4157 33
	lhu	a5,0(a5)
	slli	a5,a5,16
	srai	a5,a5,16
	.loc 1 4157 49
	andi	a5,a5,-49
	slli	a4,a5,16
	srai	a4,a4,16
	.loc 1 4157 72
	lw	a5,-52(s0)
	lhu	a5,4(a5)
	.loc 1 4157 83
	slli	a5,a5,4
	.loc 1 4157 92
	slli	a5,a5,16
	srai	a5,a5,16
	andi	a5,a5,48
	slli	a5,a5,16
	srai	a5,a5,16
	.loc 1 4157 62
	or	a5,a4,a5
	slli	a3,a5,16
	srai	a3,a3,16
	.loc 1 4157 22
	lbu	a5,-19(s0)
	slli	a5,a5,1
	lw	a4,-24(s0)
	add	a5,a4,a5
	.loc 1 4157 62
	slli	a4,a3,16
	srli	a4,a4,16
	.loc 1 4157 29
	sh	a4,0(a5)
	.loc 1 4160 42
	lbu	a5,-19(s0)
	slli	a5,a5,1
	lw	a4,-24(s0)
	add	a5,a4,a5
	.loc 1 4160 33
	lhu	a5,0(a5)
	slli	a4,a5,16
	srai	a4,a4,16
	.loc 1 4160 49
	li	a5,-4096
	addi	a5,a5,63
	and	a5,a4,a5
	slli	a4,a5,16
	srai	a4,a4,16
	.loc 1 4160 72
	lw	a5,-52(s0)
	lhu	a5,6(a5)
	.loc 1 4160 80
	slli	a5,a5,6
	.loc 1 4160 89
	slli	a3,a5,16
	srai	a3,a3,16
	li	a5,4096
	addi	a5,a5,-64
	and	a5,a3,a5
	slli	a5,a5,16
	srai	a5,a5,16
	.loc 1 4160 62
	or	a5,a4,a5
	slli	a3,a5,16
	srai	a3,a3,16
	.loc 1 4160 22
	lbu	a5,-19(s0)
	slli	a5,a5,1
	lw	a4,-24(s0)
	add	a5,a4,a5
	.loc 1 4160 62
	slli	a4,a3,16
	srli	a4,a4,16
	.loc 1 4160 29
	sh	a4,0(a5)
	.loc 1 4163 16
	lbu	a5,-19(s0)
	addi	a5,a5,1
	sb	a5,-19(s0)
	.loc 1 4166 42
	lbu	a5,-19(s0)
	slli	a5,a5,1
	lw	a4,-24(s0)
	add	a5,a4,a5
	.loc 1 4166 33
	lhu	a5,0(a5)
	slli	a5,a5,16
	srai	a5,a5,16
	.loc 1 4166 49
	andi	a5,a5,-2048
	slli	a4,a5,16
	srai	a4,a4,16
	.loc 1 4166 71
	lw	a5,-52(s0)
	lhu	a5,8(a5)
	slli	a5,a5,16
	srai	a5,a5,16
	.loc 1 4166 84
	andi	a5,a5,2047
	slli	a5,a5,16
	srai	a5,a5,16
	.loc 1 4166 62
	or	a5,a4,a5
	slli	a3,a5,16
	srai	a3,a3,16
	.loc 1 4166 22
	lbu	a5,-19(s0)
	slli	a5,a5,1
	lw	a4,-24(s0)
	add	a5,a4,a5
	.loc 1 4166 62
	slli	a4,a3,16
	srli	a4,a4,16
	.loc 1 4166 29
	sh	a4,0(a5)
	.loc 1 4169 16
	lbu	a5,-19(s0)
	addi	a5,a5,1
	sb	a5,-19(s0)
	.loc 1 4172 19
	lbu	a5,-19(s0)
	slli	a5,a5,1
	andi	a4,a5,0xff
	.loc 1 4172 53
	lbu	a5,-46(s0)
	.loc 1 4172 17
	sub	a5,a4,a5
	sb	a5,-19(s0)
	.loc 1 4175 24
	sb	zero,-18(s0)
	.loc 1 4175 13
	j	.L282
.L283:
	.loc 1 4178 74 discriminator 3
	lbu	a5,-46(s0)
	mv	a4,a5
	.loc 1 4178 86 discriminator 3
	lbu	a5,-18(s0)
	add	a5,a4,a5
	lw	a4,-24(s0)
	add	a4,a4,a5
	.loc 1 4177 42 discriminator 3
	lbu	a5,-46(s0)
	mv	a3,a5
	.loc 1 4177 54 discriminator 3
	lbu	a5,-18(s0)
	add	a5,a3,a5
	.loc 1 4178 38 discriminator 3
	lbu	a4,0(a4)
	.loc 1 4178 36 discriminator 3
	addi	a3,s0,-16
	add	a5,a3,a5
	sb	a4,-28(a5)
	.loc 1 4175 47 discriminator 3
	lbu	a5,-18(s0)
	addi	a5,a5,1
	sb	a5,-18(s0)
.L282:
	.loc 1 4175 13 discriminator 1
	lbu	a4,-18(s0)
	lbu	a5,-19(s0)
	bltu	a4,a5,.L283
	.loc 1 4182 20
	addi	a5,s0,-44
	lw	a3,-56(s0)
	li	a2,16
	mv	a1,a5
	li	a0,48
	call	bmi2_set_regs
	mv	a5,a0
	sb	a5,-17(s0)
	j	.L284
.L280:
	.loc 1 4187 14
	li	a5,-8
	sb	a5,-17(s0)
.L284:
	.loc 1 4190 12
	lb	a5,-17(s0)
	.loc 1 4191 1
	mv	a0,a5
	lw	ra,60(sp)
	.cfi_restore 1
	lw	s0,56(sp)
	.cfi_restore 8
	addi	sp,sp,64
	.cfi_def_cfa_register 2
	jr	ra
	.cfi_endproc
.LFE39:
	.size	set_orient_config, .-set_orient_config
	.align	1
	.type	set_high_g_config, @function
set_high_g_config:
.LFB40:
	.loc 1 4198 1
	.cfi_startproc
	addi	sp,sp,-64
	.cfi_def_cfa_offset 64
	sw	ra,60(sp)
	sw	s0,56(sp)
	.cfi_offset 1, -4
	.cfi_offset 8, -8
	addi	s0,sp,64
	.cfi_def_cfa 8, 0
	sw	a0,-52(s0)
	sw	a1,-56(s0)
	.loc 1 4203 13
	sw	zero,-44(s0)
	sw	zero,-40(s0)
	sw	zero,-36(s0)
	sw	zero,-32(s0)
	.loc 1 4206 13
	sb	zero,-19(s0)
	.loc 1 4209 13
	sb	zero,-18(s0)
	.loc 1 4215 32
	sb	zero,-48(s0)
	sb	zero,-47(s0)
	sb	zero,-46(s0)
	.loc 1 4218 15
	addi	a5,s0,-44
	sw	a5,-24(s0)
	.loc 1 4221 18
	addi	a5,s0,-48
	lw	a2,-56(s0)
	li	a1,15
	mv	a0,a5
	call	bmi2_extract_input_feat_config
	mv	a5,a0
	sb	a5,-25(s0)
	.loc 1 4222 8
	lbu	a5,-25(s0)
	beqz	a5,.L287
	.loc 1 4225 16
	lbu	a5,-47(s0)
	addi	a4,s0,-44
	lw	a2,-56(s0)
	mv	a1,a4
	mv	a0,a5
	call	bmi2_get_feat_config
	mv	a5,a0
	sb	a5,-17(s0)
	.loc 1 4226 12
	lb	a5,-17(s0)
	bnez	a5,.L291
	.loc 1 4229 17
	lbu	a5,-46(s0)
	sb	a5,-19(s0)
	.loc 1 4232 17
	lbu	a5,-19(s0)
	srli	a5,a5,1
	sb	a5,-19(s0)
	.loc 1 4235 42
	lbu	a5,-19(s0)
	slli	a5,a5,1
	lw	a4,-24(s0)
	add	a5,a4,a5
	.loc 1 4235 33
	lhu	a5,0(a5)
	slli	a4,a5,16
	srai	a4,a4,16
	.loc 1 4235 49
	li	a5,-32768
	and	a5,a4,a5
	slli	a4,a5,16
	srai	a4,a4,16
	.loc 1 4235 71
	lw	a5,-52(s0)
	lhu	a5,0(a5)
	slli	a3,a5,16
	srai	a3,a3,16
	.loc 1 4235 83
	li	a5,32768
	addi	a5,a5,-1
	and	a5,a3,a5
	slli	a5,a5,16
	srai	a5,a5,16
	.loc 1 4235 62
	or	a5,a4,a5
	slli	a3,a5,16
	srai	a3,a3,16
	.loc 1 4235 22
	lbu	a5,-19(s0)
	slli	a5,a5,1
	lw	a4,-24(s0)
	add	a5,a4,a5
	.loc 1 4235 62
	slli	a4,a3,16
	srli	a4,a4,16
	.loc 1 4235 29
	sh	a4,0(a5)
	.loc 1 4238 16
	lbu	a5,-19(s0)
	addi	a5,a5,1
	sb	a5,-19(s0)
	.loc 1 4241 42
	lbu	a5,-19(s0)
	slli	a5,a5,1
	lw	a4,-24(s0)
	add	a5,a4,a5
	.loc 1 4241 33
	lhu	a5,0(a5)
	slli	a4,a5,16
	srai	a4,a4,16
	.loc 1 4241 49
	li	a5,-4096
	and	a5,a4,a5
	slli	a4,a5,16
	srai	a4,a4,16
	.loc 1 4241 71
	lw	a5,-52(s0)
	lhu	a5,2(a5)
	slli	a3,a5,16
	srai	a3,a3,16
	.loc 1 4241 84
	li	a5,4096
	addi	a5,a5,-1
	and	a5,a3,a5
	slli	a5,a5,16
	srai	a5,a5,16
	.loc 1 4241 62
	or	a5,a4,a5
	slli	a3,a5,16
	srai	a3,a3,16
	.loc 1 4241 22
	lbu	a5,-19(s0)
	slli	a5,a5,1
	lw	a4,-24(s0)
	add	a5,a4,a5
	.loc 1 4241 62
	slli	a4,a3,16
	srli	a4,a4,16
	.loc 1 4241 29
	sh	a4,0(a5)
	.loc 1 4244 42
	lbu	a5,-19(s0)
	slli	a5,a5,1
	lw	a4,-24(s0)
	add	a5,a4,a5
	.loc 1 4244 33
	lhu	a5,0(a5)
	slli	a4,a5,16
	srai	a4,a4,16
	.loc 1 4244 49
	li	a5,-4096
	addi	a5,a5,-1
	and	a5,a4,a5
	slli	a4,a5,16
	srai	a4,a4,16
	.loc 1 4244 72
	lw	a5,-52(s0)
	lhu	a5,4(a5)
	.loc 1 4244 83
	slli	a5,a5,12
	.loc 1 4244 92
	slli	a3,a5,16
	srai	a3,a3,16
	li	a5,4096
	and	a5,a3,a5
	slli	a5,a5,16
	srai	a5,a5,16
	.loc 1 4244 62
	or	a5,a4,a5
	slli	a3,a5,16
	srai	a3,a3,16
	.loc 1 4244 22
	lbu	a5,-19(s0)
	slli	a5,a5,1
	lw	a4,-24(s0)
	add	a5,a4,a5
	.loc 1 4244 62
	slli	a4,a3,16
	srli	a4,a4,16
	.loc 1 4244 29
	sh	a4,0(a5)
	.loc 1 4247 42
	lbu	a5,-19(s0)
	slli	a5,a5,1
	lw	a4,-24(s0)
	add	a5,a4,a5
	.loc 1 4247 33
	lhu	a5,0(a5)
	slli	a4,a5,16
	srai	a4,a4,16
	.loc 1 4247 49
	li	a5,-8192
	addi	a5,a5,-1
	and	a5,a4,a5
	slli	a4,a5,16
	srai	a4,a4,16
	.loc 1 4247 72
	lw	a5,-52(s0)
	lhu	a5,6(a5)
	.loc 1 4247 83
	slli	a5,a5,13
	.loc 1 4247 92
	slli	a3,a5,16
	srai	a3,a3,16
	li	a5,8192
	and	a5,a3,a5
	slli	a5,a5,16
	srai	a5,a5,16
	.loc 1 4247 62
	or	a5,a4,a5
	slli	a3,a5,16
	srai	a3,a3,16
	.loc 1 4247 22
	lbu	a5,-19(s0)
	slli	a5,a5,1
	lw	a4,-24(s0)
	add	a5,a4,a5
	.loc 1 4247 62
	slli	a4,a3,16
	srli	a4,a4,16
	.loc 1 4247 29
	sh	a4,0(a5)
	.loc 1 4250 42
	lbu	a5,-19(s0)
	slli	a5,a5,1
	lw	a4,-24(s0)
	add	a5,a4,a5
	.loc 1 4250 33
	lhu	a5,0(a5)
	slli	a4,a5,16
	srai	a4,a4,16
	.loc 1 4250 49
	li	a5,-16384
	addi	a5,a5,-1
	and	a5,a4,a5
	slli	a4,a5,16
	srai	a4,a4,16
	.loc 1 4250 72
	lw	a5,-52(s0)
	lhu	a5,8(a5)
	.loc 1 4250 83
	slli	a5,a5,14
	.loc 1 4250 92
	slli	a3,a5,16
	srai	a3,a3,16
	li	a5,16384
	and	a5,a3,a5
	slli	a5,a5,16
	srai	a5,a5,16
	.loc 1 4250 62
	or	a5,a4,a5
	slli	a3,a5,16
	srai	a3,a3,16
	.loc 1 4250 22
	lbu	a5,-19(s0)
	slli	a5,a5,1
	lw	a4,-24(s0)
	add	a5,a4,a5
	.loc 1 4250 62
	slli	a4,a3,16
	srli	a4,a4,16
	.loc 1 4250 29
	sh	a4,0(a5)
	.loc 1 4253 16
	lbu	a5,-19(s0)
	addi	a5,a5,1
	sb	a5,-19(s0)
	.loc 1 4256 42
	lbu	a5,-19(s0)
	slli	a5,a5,1
	lw	a4,-24(s0)
	add	a5,a4,a5
	.loc 1 4256 33
	lhu	a5,0(a5)
	slli	a4,a5,16
	srai	a4,a4,16
	.loc 1 4256 49
	li	a5,-4096
	and	a5,a4,a5
	slli	a4,a5,16
	srai	a4,a4,16
	.loc 1 4256 71
	lw	a5,-52(s0)
	lhu	a5,10(a5)
	slli	a3,a5,16
	srai	a3,a3,16
	.loc 1 4256 82
	li	a5,4096
	addi	a5,a5,-1
	and	a5,a3,a5
	slli	a5,a5,16
	srai	a5,a5,16
	.loc 1 4256 62
	or	a5,a4,a5
	slli	a3,a5,16
	srai	a3,a3,16
	.loc 1 4256 22
	lbu	a5,-19(s0)
	slli	a5,a5,1
	lw	a4,-24(s0)
	add	a5,a4,a5
	.loc 1 4256 62
	slli	a4,a3,16
	srli	a4,a4,16
	.loc 1 4256 29
	sh	a4,0(a5)
	.loc 1 4259 16
	lbu	a5,-19(s0)
	addi	a5,a5,1
	sb	a5,-19(s0)
	.loc 1 4262 19
	lbu	a5,-19(s0)
	slli	a5,a5,1
	andi	a4,a5,0xff
	.loc 1 4262 53
	lbu	a5,-46(s0)
	.loc 1 4262 17
	sub	a5,a4,a5
	sb	a5,-19(s0)
	.loc 1 4265 24
	sb	zero,-18(s0)
	.loc 1 4265 13
	j	.L289
.L290:
	.loc 1 4268 74 discriminator 3
	lbu	a5,-46(s0)
	mv	a4,a5
	.loc 1 4268 86 discriminator 3
	lbu	a5,-18(s0)
	add	a5,a4,a5
	lw	a4,-24(s0)
	add	a4,a4,a5
	.loc 1 4267 42 discriminator 3
	lbu	a5,-46(s0)
	mv	a3,a5
	.loc 1 4267 54 discriminator 3
	lbu	a5,-18(s0)
	add	a5,a3,a5
	.loc 1 4268 38 discriminator 3
	lbu	a4,0(a4)
	.loc 1 4268 36 discriminator 3
	addi	a3,s0,-16
	add	a5,a3,a5
	sb	a4,-28(a5)
	.loc 1 4265 47 discriminator 3
	lbu	a5,-18(s0)
	addi	a5,a5,1
	sb	a5,-18(s0)
.L289:
	.loc 1 4265 13 discriminator 1
	lbu	a4,-18(s0)
	lbu	a5,-19(s0)
	bltu	a4,a5,.L290
	.loc 1 4272 20
	addi	a5,s0,-44
	lw	a3,-56(s0)
	li	a2,16
	mv	a1,a5
	li	a0,48
	call	bmi2_set_regs
	mv	a5,a0
	sb	a5,-17(s0)
	j	.L291
.L287:
	.loc 1 4277 14
	li	a5,-8
	sb	a5,-17(s0)
.L291:
	.loc 1 4280 12
	lb	a5,-17(s0)
	.loc 1 4281 1
	mv	a0,a5
	lw	ra,60(sp)
	.cfi_restore 1
	lw	s0,56(sp)
	.cfi_restore 8
	addi	sp,sp,64
	.cfi_def_cfa_register 2
	jr	ra
	.cfi_endproc
.LFE40:
	.size	set_high_g_config, .-set_high_g_config
	.align	1
	.type	set_low_g_config, @function
set_low_g_config:
.LFB41:
	.loc 1 4288 1
	.cfi_startproc
	addi	sp,sp,-64
	.cfi_def_cfa_offset 64
	sw	ra,60(sp)
	sw	s0,56(sp)
	.cfi_offset 1, -4
	.cfi_offset 8, -8
	addi	s0,sp,64
	.cfi_def_cfa 8, 0
	sw	a0,-52(s0)
	sw	a1,-56(s0)
	.loc 1 4293 13
	sw	zero,-44(s0)
	sw	zero,-40(s0)
	sw	zero,-36(s0)
	sw	zero,-32(s0)
	.loc 1 4296 13
	sb	zero,-19(s0)
	.loc 1 4299 13
	sb	zero,-18(s0)
	.loc 1 4305 32
	sb	zero,-48(s0)
	sb	zero,-47(s0)
	sb	zero,-46(s0)
	.loc 1 4308 15
	addi	a5,s0,-44
	sw	a5,-24(s0)
	.loc 1 4311 18
	addi	a5,s0,-48
	lw	a2,-56(s0)
	li	a1,16
	mv	a0,a5
	call	bmi2_extract_input_feat_config
	mv	a5,a0
	sb	a5,-25(s0)
	.loc 1 4312 8
	lbu	a5,-25(s0)
	beqz	a5,.L294
	.loc 1 4315 16
	lbu	a5,-47(s0)
	addi	a4,s0,-44
	lw	a2,-56(s0)
	mv	a1,a4
	mv	a0,a5
	call	bmi2_get_feat_config
	mv	a5,a0
	sb	a5,-17(s0)
	.loc 1 4316 12
	lb	a5,-17(s0)
	bnez	a5,.L298
	.loc 1 4319 17
	lbu	a5,-46(s0)
	sb	a5,-19(s0)
	.loc 1 4322 17
	lbu	a5,-19(s0)
	srli	a5,a5,1
	sb	a5,-19(s0)
	.loc 1 4325 42
	lbu	a5,-19(s0)
	slli	a5,a5,1
	lw	a4,-24(s0)
	add	a5,a4,a5
	.loc 1 4325 33
	lhu	a5,0(a5)
	slli	a4,a5,16
	srai	a4,a4,16
	.loc 1 4325 49
	li	a5,-32768
	and	a5,a4,a5
	slli	a4,a5,16
	srai	a4,a4,16
	.loc 1 4325 71
	lw	a5,-52(s0)
	lhu	a5,0(a5)
	slli	a3,a5,16
	srai	a3,a3,16
	.loc 1 4325 83
	li	a5,32768
	addi	a5,a5,-1
	and	a5,a3,a5
	slli	a5,a5,16
	srai	a5,a5,16
	.loc 1 4325 62
	or	a5,a4,a5
	slli	a3,a5,16
	srai	a3,a3,16
	.loc 1 4325 22
	lbu	a5,-19(s0)
	slli	a5,a5,1
	lw	a4,-24(s0)
	add	a5,a4,a5
	.loc 1 4325 62
	slli	a4,a3,16
	srli	a4,a4,16
	.loc 1 4325 29
	sh	a4,0(a5)
	.loc 1 4328 16
	lbu	a5,-19(s0)
	addi	a5,a5,1
	sb	a5,-19(s0)
	.loc 1 4331 42
	lbu	a5,-19(s0)
	slli	a5,a5,1
	lw	a4,-24(s0)
	add	a5,a4,a5
	.loc 1 4331 33
	lhu	a5,0(a5)
	slli	a4,a5,16
	srai	a4,a4,16
	.loc 1 4331 49
	li	a5,-4096
	and	a5,a4,a5
	slli	a4,a5,16
	srai	a4,a4,16
	.loc 1 4331 71
	lw	a5,-52(s0)
	lhu	a5,2(a5)
	slli	a3,a5,16
	srai	a3,a3,16
	.loc 1 4331 84
	li	a5,4096
	addi	a5,a5,-1
	and	a5,a3,a5
	slli	a5,a5,16
	srai	a5,a5,16
	.loc 1 4331 62
	or	a5,a4,a5
	slli	a3,a5,16
	srai	a3,a3,16
	.loc 1 4331 22
	lbu	a5,-19(s0)
	slli	a5,a5,1
	lw	a4,-24(s0)
	add	a5,a4,a5
	.loc 1 4331 62
	slli	a4,a3,16
	srli	a4,a4,16
	.loc 1 4331 29
	sh	a4,0(a5)
	.loc 1 4334 16
	lbu	a5,-19(s0)
	addi	a5,a5,1
	sb	a5,-19(s0)
	.loc 1 4337 42
	lbu	a5,-19(s0)
	slli	a5,a5,1
	lw	a4,-24(s0)
	add	a5,a4,a5
	.loc 1 4337 33
	lhu	a5,0(a5)
	slli	a4,a5,16
	srai	a4,a4,16
	.loc 1 4337 49
	li	a5,-4096
	and	a5,a4,a5
	slli	a4,a5,16
	srai	a4,a4,16
	.loc 1 4337 71
	lw	a5,-52(s0)
	lhu	a5,4(a5)
	slli	a3,a5,16
	srai	a3,a3,16
	.loc 1 4337 82
	li	a5,4096
	addi	a5,a5,-1
	and	a5,a3,a5
	slli	a5,a5,16
	srai	a5,a5,16
	.loc 1 4337 62
	or	a5,a4,a5
	slli	a3,a5,16
	srai	a3,a3,16
	.loc 1 4337 22
	lbu	a5,-19(s0)
	slli	a5,a5,1
	lw	a4,-24(s0)
	add	a5,a4,a5
	.loc 1 4337 62
	slli	a4,a3,16
	srli	a4,a4,16
	.loc 1 4337 29
	sh	a4,0(a5)
	.loc 1 4340 16
	lbu	a5,-19(s0)
	addi	a5,a5,1
	sb	a5,-19(s0)
	.loc 1 4343 19
	lbu	a5,-19(s0)
	slli	a5,a5,1
	andi	a4,a5,0xff
	.loc 1 4343 52
	lbu	a5,-46(s0)
	.loc 1 4343 17
	sub	a5,a4,a5
	sb	a5,-19(s0)
	.loc 1 4346 24
	sb	zero,-18(s0)
	.loc 1 4346 13
	j	.L296
.L297:
	.loc 1 4348 99 discriminator 3
	lbu	a5,-46(s0)
	mv	a4,a5
	.loc 1 4348 111 discriminator 3
	lbu	a5,-18(s0)
	add	a5,a4,a5
	lw	a4,-24(s0)
	add	a4,a4,a5
	.loc 1 4348 41 discriminator 3
	lbu	a5,-46(s0)
	mv	a3,a5
	.loc 1 4348 53 discriminator 3
	lbu	a5,-18(s0)
	add	a5,a3,a5
	.loc 1 4348 64 discriminator 3
	lbu	a4,0(a4)
	.loc 1 4348 62 discriminator 3
	addi	a3,s0,-16
	add	a5,a3,a5
	sb	a4,-28(a5)
	.loc 1 4346 47 discriminator 3
	lbu	a5,-18(s0)
	addi	a5,a5,1
	sb	a5,-18(s0)
.L296:
	.loc 1 4346 13 discriminator 1
	lbu	a4,-18(s0)
	lbu	a5,-19(s0)
	bltu	a4,a5,.L297
	.loc 1 4352 20
	addi	a5,s0,-44
	lw	a3,-56(s0)
	li	a2,16
	mv	a1,a5
	li	a0,48
	call	bmi2_set_regs
	mv	a5,a0
	sb	a5,-17(s0)
	j	.L298
.L294:
	.loc 1 4357 14
	li	a5,-8
	sb	a5,-17(s0)
.L298:
	.loc 1 4360 12
	lb	a5,-17(s0)
	.loc 1 4361 1
	mv	a0,a5
	lw	ra,60(sp)
	.cfi_restore 1
	lw	s0,56(sp)
	.cfi_restore 8
	addi	sp,sp,64
	.cfi_def_cfa_register 2
	jr	ra
	.cfi_endproc
.LFE41:
	.size	set_low_g_config, .-set_low_g_config
	.align	1
	.type	set_flat_config, @function
set_flat_config:
.LFB42:
	.loc 1 4368 1
	.cfi_startproc
	addi	sp,sp,-64
	.cfi_def_cfa_offset 64
	sw	ra,60(sp)
	sw	s0,56(sp)
	.cfi_offset 1, -4
	.cfi_offset 8, -8
	addi	s0,sp,64
	.cfi_def_cfa 8, 0
	sw	a0,-52(s0)
	sw	a1,-56(s0)
	.loc 1 4373 13
	sw	zero,-44(s0)
	sw	zero,-40(s0)
	sw	zero,-36(s0)
	sw	zero,-32(s0)
	.loc 1 4376 13
	sb	zero,-19(s0)
	.loc 1 4379 13
	sb	zero,-18(s0)
	.loc 1 4385 32
	sb	zero,-48(s0)
	sb	zero,-47(s0)
	sb	zero,-46(s0)
	.loc 1 4388 15
	addi	a5,s0,-44
	sw	a5,-24(s0)
	.loc 1 4391 18
	addi	a5,s0,-48
	lw	a2,-56(s0)
	li	a1,17
	mv	a0,a5
	call	bmi2_extract_input_feat_config
	mv	a5,a0
	sb	a5,-25(s0)
	.loc 1 4392 8
	lbu	a5,-25(s0)
	beqz	a5,.L301
	.loc 1 4395 16
	lbu	a5,-47(s0)
	addi	a4,s0,-44
	lw	a2,-56(s0)
	mv	a1,a4
	mv	a0,a5
	call	bmi2_get_feat_config
	mv	a5,a0
	sb	a5,-17(s0)
	.loc 1 4396 12
	lb	a5,-17(s0)
	bnez	a5,.L305
	.loc 1 4399 17
	lbu	a5,-46(s0)
	sb	a5,-19(s0)
	.loc 1 4402 17
	lbu	a5,-19(s0)
	srli	a5,a5,1
	sb	a5,-19(s0)
	.loc 1 4405 42
	lbu	a5,-19(s0)
	slli	a5,a5,1
	lw	a4,-24(s0)
	add	a5,a4,a5
	.loc 1 4405 33
	lhu	a5,0(a5)
	slli	a5,a5,16
	srai	a5,a5,16
	.loc 1 4405 49
	andi	a5,a5,-127
	slli	a4,a5,16
	srai	a4,a4,16
	.loc 1 4405 72
	lw	a5,-52(s0)
	lhu	a5,0(a5)
	.loc 1 4405 80
	slli	a5,a5,1
	.loc 1 4405 89
	slli	a5,a5,16
	srai	a5,a5,16
	andi	a5,a5,126
	slli	a5,a5,16
	srai	a5,a5,16
	.loc 1 4405 62
	or	a5,a4,a5
	slli	a3,a5,16
	srai	a3,a3,16
	.loc 1 4405 22
	lbu	a5,-19(s0)
	slli	a5,a5,1
	lw	a4,-24(s0)
	add	a5,a4,a5
	.loc 1 4405 62
	slli	a4,a3,16
	srli	a4,a4,16
	.loc 1 4405 29
	sh	a4,0(a5)
	.loc 1 4408 42
	lbu	a5,-19(s0)
	slli	a5,a5,1
	lw	a4,-24(s0)
	add	a5,a4,a5
	.loc 1 4408 33
	lhu	a5,0(a5)
	slli	a5,a5,16
	srai	a5,a5,16
	.loc 1 4408 49
	andi	a5,a5,-385
	slli	a4,a5,16
	srai	a4,a4,16
	.loc 1 4408 72
	lw	a5,-52(s0)
	lhu	a5,2(a5)
	.loc 1 4408 83
	slli	a5,a5,7
	.loc 1 4408 92
	slli	a5,a5,16
	srai	a5,a5,16
	andi	a5,a5,384
	slli	a5,a5,16
	srai	a5,a5,16
	.loc 1 4408 62
	or	a5,a4,a5
	slli	a3,a5,16
	srai	a3,a3,16
	.loc 1 4408 22
	lbu	a5,-19(s0)
	slli	a5,a5,1
	lw	a4,-24(s0)
	add	a5,a4,a5
	.loc 1 4408 62
	slli	a4,a3,16
	srli	a4,a4,16
	.loc 1 4408 29
	sh	a4,0(a5)
	.loc 1 4411 16
	lbu	a5,-19(s0)
	addi	a5,a5,1
	sb	a5,-19(s0)
	.loc 1 4414 42
	lbu	a5,-19(s0)
	slli	a5,a5,1
	lw	a4,-24(s0)
	add	a5,a4,a5
	.loc 1 4414 33
	lhu	a5,0(a5)
	slli	a5,a5,16
	srai	a5,a5,16
	.loc 1 4414 49
	andi	a5,a5,-64
	slli	a4,a5,16
	srai	a4,a4,16
	.loc 1 4414 71
	lw	a5,-52(s0)
	lhu	a5,4(a5)
	slli	a5,a5,16
	srai	a5,a5,16
	.loc 1 4414 84
	andi	a5,a5,63
	slli	a5,a5,16
	srai	a5,a5,16
	.loc 1 4414 62
	or	a5,a4,a5
	slli	a3,a5,16
	srai	a3,a3,16
	.loc 1 4414 22
	lbu	a5,-19(s0)
	slli	a5,a5,1
	lw	a4,-24(s0)
	add	a5,a4,a5
	.loc 1 4414 62
	slli	a4,a3,16
	srli	a4,a4,16
	.loc 1 4414 29
	sh	a4,0(a5)
	.loc 1 4417 42
	lbu	a5,-19(s0)
	slli	a5,a5,1
	lw	a4,-24(s0)
	add	a5,a4,a5
	.loc 1 4417 33
	lhu	a5,0(a5)
	slli	a4,a5,16
	srai	a4,a4,16
	.loc 1 4417 49
	li	a5,-16384
	addi	a5,a5,63
	and	a5,a4,a5
	slli	a4,a5,16
	srai	a4,a4,16
	.loc 1 4417 72
	lw	a5,-52(s0)
	lhu	a5,6(a5)
	.loc 1 4417 84
	slli	a5,a5,6
	.loc 1 4417 93
	slli	a3,a5,16
	srai	a3,a3,16
	li	a5,16384
	addi	a5,a5,-64
	and	a5,a3,a5
	slli	a5,a5,16
	srai	a5,a5,16
	.loc 1 4417 62
	or	a5,a4,a5
	slli	a3,a5,16
	srai	a3,a3,16
	.loc 1 4417 22
	lbu	a5,-19(s0)
	slli	a5,a5,1
	lw	a4,-24(s0)
	add	a5,a4,a5
	.loc 1 4417 62
	slli	a4,a3,16
	srli	a4,a4,16
	.loc 1 4417 29
	sh	a4,0(a5)
	.loc 1 4420 16
	lbu	a5,-19(s0)
	addi	a5,a5,1
	sb	a5,-19(s0)
	.loc 1 4423 19
	lbu	a5,-19(s0)
	slli	a5,a5,1
	andi	a4,a5,0xff
	.loc 1 4423 51
	lbu	a5,-46(s0)
	.loc 1 4423 17
	sub	a5,a4,a5
	sb	a5,-19(s0)
	.loc 1 4426 24
	sb	zero,-18(s0)
	.loc 1 4426 13
	j	.L303
.L304:
	.loc 1 4428 97 discriminator 3
	lbu	a5,-46(s0)
	mv	a4,a5
	.loc 1 4428 109 discriminator 3
	lbu	a5,-18(s0)
	add	a5,a4,a5
	lw	a4,-24(s0)
	add	a4,a4,a5
	.loc 1 4428 40 discriminator 3
	lbu	a5,-46(s0)
	mv	a3,a5
	.loc 1 4428 52 discriminator 3
	lbu	a5,-18(s0)
	add	a5,a3,a5
	.loc 1 4428 63 discriminator 3
	lbu	a4,0(a4)
	.loc 1 4428 61 discriminator 3
	addi	a3,s0,-16
	add	a5,a3,a5
	sb	a4,-28(a5)
	.loc 1 4426 47 discriminator 3
	lbu	a5,-18(s0)
	addi	a5,a5,1
	sb	a5,-18(s0)
.L303:
	.loc 1 4426 13 discriminator 1
	lbu	a4,-18(s0)
	lbu	a5,-19(s0)
	bltu	a4,a5,.L304
	.loc 1 4432 20
	addi	a5,s0,-44
	lw	a3,-56(s0)
	li	a2,16
	mv	a1,a5
	li	a0,48
	call	bmi2_set_regs
	mv	a5,a0
	sb	a5,-17(s0)
	j	.L305
.L301:
	.loc 1 4437 14
	li	a5,-8
	sb	a5,-17(s0)
.L305:
	.loc 1 4440 12
	lb	a5,-17(s0)
	.loc 1 4441 1
	mv	a0,a5
	lw	ra,60(sp)
	.cfi_restore 1
	lw	s0,56(sp)
	.cfi_restore 8
	addi	sp,sp,64
	.cfi_def_cfa_register 2
	jr	ra
	.cfi_endproc
.LFE42:
	.size	set_flat_config, .-set_flat_config
	.align	1
	.type	get_any_motion_config, @function
get_any_motion_config:
.LFB43:
	.loc 1 4448 1
	.cfi_startproc
	addi	sp,sp,-64
	.cfi_def_cfa_offset 64
	sw	ra,60(sp)
	sw	s0,56(sp)
	.cfi_offset 1, -4
	.cfi_offset 8, -8
	addi	s0,sp,64
	.cfi_def_cfa 8, 0
	sw	a0,-52(s0)
	sw	a1,-56(s0)
	.loc 1 4453 13
	sw	zero,-44(s0)
	sw	zero,-40(s0)
	sw	zero,-36(s0)
	sw	zero,-32(s0)
	.loc 1 4456 13
	sb	zero,-18(s0)
	.loc 1 4471 32
	sb	zero,-48(s0)
	sb	zero,-47(s0)
	sb	zero,-46(s0)
	.loc 1 4474 18
	addi	a5,s0,-48
	lw	a2,-56(s0)
	li	a1,4
	mv	a0,a5
	call	bmi2_extract_input_feat_config
	mv	a5,a0
	sb	a5,-19(s0)
	.loc 1 4475 8
	lbu	a5,-19(s0)
	beqz	a5,.L308
	.loc 1 4478 16
	lbu	a5,-47(s0)
	addi	a4,s0,-44
	lw	a2,-56(s0)
	mv	a1,a4
	mv	a0,a5
	call	bmi2_get_feat_config
	mv	a5,a0
	sb	a5,-17(s0)
	.loc 1 4479 12
	lb	a5,-17(s0)
	bnez	a5,.L310
	.loc 1 4482 17
	lbu	a5,-46(s0)
	sb	a5,-18(s0)
	.loc 1 4485 45
	lbu	a5,-18(s0)
	addi	a4,a5,1
	sb	a4,-18(s0)
	.loc 1 4485 41
	addi	a4,s0,-16
	add	a5,a4,a5
	lbu	a5,-28(a5)
	.loc 1 4485 17
	sh	a5,-22(s0)
	.loc 1 4486 46
	lbu	a5,-18(s0)
	addi	a4,a5,1
	sb	a4,-18(s0)
	.loc 1 4486 42
	addi	a4,s0,-16
	add	a5,a4,a5
	lbu	a5,-28(a5)
	slli	a5,a5,16
	srli	a5,a5,16
	.loc 1 4486 17
	slli	a5,a5,8
	sh	a5,-24(s0)
	.loc 1 4487 21
	lhu	a4,-22(s0)
	lhu	a5,-24(s0)
	or	a5,a4,a5
	sh	a5,-26(s0)
	.loc 1 4490 40
	lhu	a4,-26(s0)
	li	a5,8192
	addi	a5,a5,-1
	and	a5,a4,a5
	slli	a4,a5,16
	srli	a4,a4,16
	.loc 1 4490 30
	lw	a5,-52(s0)
	sh	a4,0(a5)
	.loc 1 4493 51
	lhu	a5,-26(s0)
	srai	a5,a5,13
	slli	a5,a5,16
	srli	a5,a5,16
	andi	a5,a5,1
	slli	a4,a5,16
	srli	a4,a4,16
	.loc 1 4493 30
	lw	a5,-52(s0)
	sh	a4,4(a5)
	.loc 1 4496 51
	lhu	a5,-26(s0)
	srai	a5,a5,14
	slli	a5,a5,16
	srli	a5,a5,16
	andi	a5,a5,1
	slli	a4,a5,16
	srli	a4,a4,16
	.loc 1 4496 30
	lw	a5,-52(s0)
	sh	a4,6(a5)
	.loc 1 4499 51
	lhu	a5,-26(s0)
	srli	a5,a5,15
	slli	a4,a5,16
	srli	a4,a4,16
	.loc 1 4499 30
	lw	a5,-52(s0)
	sh	a4,8(a5)
	.loc 1 4502 45
	lbu	a5,-18(s0)
	addi	a4,a5,1
	sb	a4,-18(s0)
	.loc 1 4502 41
	addi	a4,s0,-16
	add	a5,a4,a5
	lbu	a5,-28(a5)
	.loc 1 4502 17
	sh	a5,-22(s0)
	.loc 1 4503 46
	lbu	a5,-18(s0)
	addi	a4,a5,1
	sb	a4,-18(s0)
	.loc 1 4503 42
	addi	a4,s0,-16
	add	a5,a4,a5
	lbu	a5,-28(a5)
	slli	a5,a5,16
	srli	a5,a5,16
	.loc 1 4503 17
	slli	a5,a5,8
	sh	a5,-24(s0)
	.loc 1 4504 21
	lhu	a4,-22(s0)
	lhu	a5,-24(s0)
	or	a5,a4,a5
	sh	a5,-26(s0)
	.loc 1 4507 41
	lhu	a5,-26(s0)
	andi	a5,a5,2047
	slli	a4,a5,16
	srli	a4,a4,16
	.loc 1 4507 31
	lw	a5,-52(s0)
	sh	a4,2(a5)
	j	.L310
.L308:
	.loc 1 4512 14
	li	a5,-8
	sb	a5,-17(s0)
.L310:
	.loc 1 4515 12
	lb	a5,-17(s0)
	.loc 1 4516 1
	mv	a0,a5
	lw	ra,60(sp)
	.cfi_restore 1
	lw	s0,56(sp)
	.cfi_restore 8
	addi	sp,sp,64
	.cfi_def_cfa_register 2
	jr	ra
	.cfi_endproc
.LFE43:
	.size	get_any_motion_config, .-get_any_motion_config
	.align	1
	.type	get_no_motion_config, @function
get_no_motion_config:
.LFB44:
	.loc 1 4523 1
	.cfi_startproc
	addi	sp,sp,-64
	.cfi_def_cfa_offset 64
	sw	ra,60(sp)
	sw	s0,56(sp)
	.cfi_offset 1, -4
	.cfi_offset 8, -8
	addi	s0,sp,64
	.cfi_def_cfa 8, 0
	sw	a0,-52(s0)
	sw	a1,-56(s0)
	.loc 1 4528 13
	sw	zero,-44(s0)
	sw	zero,-40(s0)
	sw	zero,-36(s0)
	sw	zero,-32(s0)
	.loc 1 4531 13
	sb	zero,-18(s0)
	.loc 1 4534 14
	sh	zero,-20(s0)
	.loc 1 4537 14
	sh	zero,-22(s0)
	.loc 1 4540 14
	sh	zero,-24(s0)
	.loc 1 4546 32
	sb	zero,-48(s0)
	sb	zero,-47(s0)
	sb	zero,-46(s0)
	.loc 1 4549 18
	addi	a5,s0,-48
	lw	a2,-56(s0)
	li	a1,5
	mv	a0,a5
	call	bmi2_extract_input_feat_config
	mv	a5,a0
	sb	a5,-25(s0)
	.loc 1 4550 8
	lbu	a5,-25(s0)
	beqz	a5,.L313
	.loc 1 4553 16
	lbu	a5,-47(s0)
	addi	a4,s0,-44
	lw	a2,-56(s0)
	mv	a1,a4
	mv	a0,a5
	call	bmi2_get_feat_config
	mv	a5,a0
	sb	a5,-17(s0)
	.loc 1 4554 12
	lb	a5,-17(s0)
	bnez	a5,.L315
	.loc 1 4557 17
	lbu	a5,-46(s0)
	sb	a5,-18(s0)
	.loc 1 4560 45
	lbu	a5,-18(s0)
	addi	a4,a5,1
	sb	a4,-18(s0)
	.loc 1 4560 41
	addi	a4,s0,-16
	add	a5,a4,a5
	lbu	a5,-28(a5)
	.loc 1 4560 17
	sh	a5,-20(s0)
	.loc 1 4561 46
	lbu	a5,-18(s0)
	addi	a4,a5,1
	sb	a4,-18(s0)
	.loc 1 4561 42
	addi	a4,s0,-16
	add	a5,a4,a5
	lbu	a5,-28(a5)
	slli	a5,a5,16
	srli	a5,a5,16
	.loc 1 4561 17
	slli	a5,a5,8
	sh	a5,-22(s0)
	.loc 1 4562 21
	lhu	a4,-20(s0)
	lhu	a5,-22(s0)
	or	a5,a4,a5
	sh	a5,-24(s0)
	.loc 1 4565 40
	lhu	a4,-24(s0)
	li	a5,8192
	addi	a5,a5,-1
	and	a5,a4,a5
	slli	a4,a5,16
	srli	a4,a4,16
	.loc 1 4565 30
	lw	a5,-52(s0)
	sh	a4,0(a5)
	.loc 1 4568 51
	lhu	a5,-24(s0)
	srai	a5,a5,13
	slli	a5,a5,16
	srli	a5,a5,16
	andi	a5,a5,1
	slli	a4,a5,16
	srli	a4,a4,16
	.loc 1 4568 30
	lw	a5,-52(s0)
	sh	a4,4(a5)
	.loc 1 4571 51
	lhu	a5,-24(s0)
	srai	a5,a5,14
	slli	a5,a5,16
	srli	a5,a5,16
	andi	a5,a5,1
	slli	a4,a5,16
	srli	a4,a4,16
	.loc 1 4571 30
	lw	a5,-52(s0)
	sh	a4,6(a5)
	.loc 1 4574 51
	lhu	a5,-24(s0)
	srli	a5,a5,15
	slli	a4,a5,16
	srli	a4,a4,16
	.loc 1 4574 30
	lw	a5,-52(s0)
	sh	a4,8(a5)
	.loc 1 4577 45
	lbu	a5,-18(s0)
	addi	a4,a5,1
	sb	a4,-18(s0)
	.loc 1 4577 41
	addi	a4,s0,-16
	add	a5,a4,a5
	lbu	a5,-28(a5)
	.loc 1 4577 17
	sh	a5,-20(s0)
	.loc 1 4578 46
	lbu	a5,-18(s0)
	addi	a4,a5,1
	sb	a4,-18(s0)
	.loc 1 4578 42
	addi	a4,s0,-16
	add	a5,a4,a5
	lbu	a5,-28(a5)
	slli	a5,a5,16
	srli	a5,a5,16
	.loc 1 4578 17
	slli	a5,a5,8
	sh	a5,-22(s0)
	.loc 1 4579 21
	lhu	a4,-20(s0)
	lhu	a5,-22(s0)
	or	a5,a4,a5
	sh	a5,-24(s0)
	.loc 1 4582 41
	lhu	a5,-24(s0)
	andi	a5,a5,2047
	slli	a4,a5,16
	srli	a4,a4,16
	.loc 1 4582 31
	lw	a5,-52(s0)
	sh	a4,2(a5)
	j	.L315
.L313:
	.loc 1 4587 14
	li	a5,-8
	sb	a5,-17(s0)
.L315:
	.loc 1 4590 12
	lb	a5,-17(s0)
	.loc 1 4591 1
	mv	a0,a5
	lw	ra,60(sp)
	.cfi_restore 1
	lw	s0,56(sp)
	.cfi_restore 8
	addi	sp,sp,64
	.cfi_def_cfa_register 2
	jr	ra
	.cfi_endproc
.LFE44:
	.size	get_no_motion_config, .-get_no_motion_config
	.align	1
	.type	get_sig_motion_config, @function
get_sig_motion_config:
.LFB45:
	.loc 1 4598 1
	.cfi_startproc
	addi	sp,sp,-64
	.cfi_def_cfa_offset 64
	sw	ra,60(sp)
	sw	s0,56(sp)
	.cfi_offset 1, -4
	.cfi_offset 8, -8
	addi	s0,sp,64
	.cfi_def_cfa 8, 0
	sw	a0,-52(s0)
	sw	a1,-56(s0)
	.loc 1 4603 13
	sw	zero,-44(s0)
	sw	zero,-40(s0)
	sw	zero,-36(s0)
	sw	zero,-32(s0)
	.loc 1 4606 13
	sb	zero,-18(s0)
	.loc 1 4609 14
	sh	zero,-20(s0)
	.loc 1 4612 14
	sh	zero,-22(s0)
	.loc 1 4615 14
	sh	zero,-24(s0)
	.loc 1 4621 32
	sb	zero,-48(s0)
	sb	zero,-47(s0)
	sb	zero,-46(s0)
	.loc 1 4624 18
	addi	a5,s0,-48
	lw	a2,-56(s0)
	li	a1,3
	mv	a0,a5
	call	bmi2_extract_input_feat_config
	mv	a5,a0
	sb	a5,-25(s0)
	.loc 1 4625 8
	lbu	a5,-25(s0)
	beqz	a5,.L318
	.loc 1 4628 16
	lbu	a5,-47(s0)
	addi	a4,s0,-44
	lw	a2,-56(s0)
	mv	a1,a4
	mv	a0,a5
	call	bmi2_get_feat_config
	mv	a5,a0
	sb	a5,-17(s0)
	.loc 1 4629 12
	lb	a5,-17(s0)
	bnez	a5,.L320
	.loc 1 4632 17
	lbu	a5,-46(s0)
	sb	a5,-18(s0)
	.loc 1 4635 45
	lbu	a5,-18(s0)
	addi	a4,a5,1
	sb	a4,-18(s0)
	.loc 1 4635 41
	addi	a4,s0,-16
	add	a5,a4,a5
	lbu	a5,-28(a5)
	.loc 1 4635 17
	sh	a5,-20(s0)
	.loc 1 4636 46
	lbu	a5,-18(s0)
	addi	a4,a5,1
	sb	a4,-18(s0)
	.loc 1 4636 42
	addi	a4,s0,-16
	add	a5,a4,a5
	lbu	a5,-28(a5)
	slli	a5,a5,16
	srli	a5,a5,16
	.loc 1 4636 17
	slli	a5,a5,8
	sh	a5,-22(s0)
	.loc 1 4637 21
	lhu	a4,-20(s0)
	lhu	a5,-22(s0)
	or	a5,a4,a5
	sh	a5,-24(s0)
	.loc 1 4640 32
	lw	a5,-52(s0)
	lhu	a4,-24(s0)
	sh	a4,0(a5)
	j	.L320
.L318:
	.loc 1 4645 14
	li	a5,-8
	sb	a5,-17(s0)
.L320:
	.loc 1 4648 12
	lb	a5,-17(s0)
	.loc 1 4649 1
	mv	a0,a5
	lw	ra,60(sp)
	.cfi_restore 1
	lw	s0,56(sp)
	.cfi_restore 8
	addi	sp,sp,64
	.cfi_def_cfa_register 2
	jr	ra
	.cfi_endproc
.LFE45:
	.size	get_sig_motion_config, .-get_sig_motion_config
	.align	1
	.type	get_step_config, @function
get_step_config:
.LFB46:
	.loc 1 4655 1
	.cfi_startproc
	addi	sp,sp,-64
	.cfi_def_cfa_offset 64
	sw	ra,60(sp)
	sw	s0,56(sp)
	.cfi_offset 1, -4
	.cfi_offset 8, -8
	addi	s0,sp,64
	.cfi_def_cfa 8, 0
	sw	a0,-52(s0)
	sw	a1,-56(s0)
	.loc 1 4660 13
	sw	zero,-44(s0)
	sw	zero,-40(s0)
	sw	zero,-36(s0)
	sw	zero,-32(s0)
	.loc 1 4663 13
	sb	zero,-18(s0)
	.loc 1 4666 14
	sh	zero,-20(s0)
	.loc 1 4669 14
	sh	zero,-22(s0)
	.loc 1 4672 14
	sh	zero,-24(s0)
	.loc 1 4678 32
	sb	zero,-48(s0)
	sb	zero,-47(s0)
	sb	zero,-46(s0)
	.loc 1 4681 18
	addi	a5,s0,-48
	lw	a2,-56(s0)
	li	a1,7
	mv	a0,a5
	call	bmi2_extract_input_feat_config
	mv	a5,a0
	sb	a5,-25(s0)
	.loc 1 4682 8
	lbu	a5,-25(s0)
	beqz	a5,.L323
	.loc 1 4685 16
	lbu	a5,-47(s0)
	addi	a4,s0,-44
	lw	a2,-56(s0)
	mv	a1,a4
	mv	a0,a5
	call	bmi2_get_feat_config
	mv	a5,a0
	sb	a5,-17(s0)
	.loc 1 4686 12
	lb	a5,-17(s0)
	bnez	a5,.L325
	.loc 1 4689 17
	lbu	a5,-46(s0)
	sb	a5,-18(s0)
	.loc 1 4692 45
	lbu	a5,-18(s0)
	addi	a4,a5,1
	sb	a4,-18(s0)
	.loc 1 4692 41
	addi	a4,s0,-16
	add	a5,a4,a5
	lbu	a5,-28(a5)
	.loc 1 4692 17
	sh	a5,-20(s0)
	.loc 1 4693 46
	lbu	a5,-18(s0)
	addi	a4,a5,1
	sb	a4,-18(s0)
	.loc 1 4693 42
	addi	a4,s0,-16
	add	a5,a4,a5
	lbu	a5,-28(a5)
	slli	a5,a5,16
	srli	a5,a5,16
	.loc 1 4693 17
	slli	a5,a5,8
	sh	a5,-22(s0)
	.loc 1 4694 21
	lhu	a4,-20(s0)
	lhu	a5,-22(s0)
	or	a5,a4,a5
	sh	a5,-24(s0)
	.loc 1 4697 47
	lhu	a5,-24(s0)
	andi	a5,a5,1023
	slli	a4,a5,16
	srli	a4,a4,16
	.loc 1 4697 37
	lw	a5,-52(s0)
	sh	a4,0(a5)
	.loc 1 4700 56
	lhu	a5,-24(s0)
	srai	a5,a5,10
	slli	a5,a5,16
	srli	a5,a5,16
	andi	a5,a5,1
	slli	a4,a5,16
	srli	a4,a4,16
	.loc 1 4700 35
	lw	a5,-52(s0)
	sh	a4,2(a5)
	.loc 1 4703 45
	lbu	a5,-18(s0)
	addi	a4,a5,1
	sb	a4,-18(s0)
	.loc 1 4703 41
	addi	a4,s0,-16
	add	a5,a4,a5
	lbu	a5,-28(a5)
	.loc 1 4703 17
	sh	a5,-20(s0)
	.loc 1 4704 46
	lbu	a5,-18(s0)
	addi	a4,a5,1
	sb	a4,-18(s0)
	.loc 1 4704 42
	addi	a4,s0,-16
	add	a5,a4,a5
	lbu	a5,-28(a5)
	slli	a5,a5,16
	srli	a5,a5,16
	.loc 1 4704 17
	slli	a5,a5,8
	sh	a5,-22(s0)
	.loc 1 4705 21
	lhu	a4,-20(s0)
	lhu	a5,-22(s0)
	or	a5,a4,a5
	sh	a5,-24(s0)
	.loc 1 4707 59
	lhu	a5,-24(s0)
	srli	a5,a5,8
	slli	a5,a5,16
	srli	a5,a5,16
	.loc 1 4707 38
	andi	a4,a5,0xff
	lw	a5,-52(s0)
	sb	a4,4(a5)
	j	.L325
.L323:
	.loc 1 4712 14
	li	a5,-8
	sb	a5,-17(s0)
.L325:
	.loc 1 4715 12
	lb	a5,-17(s0)
	.loc 1 4716 1
	mv	a0,a5
	lw	ra,60(sp)
	.cfi_restore 1
	lw	s0,56(sp)
	.cfi_restore 8
	addi	sp,sp,64
	.cfi_def_cfa_register 2
	jr	ra
	.cfi_endproc
.LFE46:
	.size	get_step_config, .-get_step_config
	.align	1
	.type	get_tap_detector_config, @function
get_tap_detector_config:
.LFB47:
	.loc 1 4723 1
	.cfi_startproc
	addi	sp,sp,-48
	.cfi_def_cfa_offset 48
	sw	ra,44(sp)
	sw	s0,40(sp)
	.cfi_offset 1, -4
	.cfi_offset 8, -8
	addi	s0,sp,48
	.cfi_def_cfa 8, 0
	sw	a0,-36(s0)
	sw	a1,-40(s0)
	.loc 1 4727 15
	lw	a5,-40(s0)
	lw	a5,92(a5)
	.loc 1 4727 12
	lw	a1,-40(s0)
	lw	a0,-36(s0)
	jalr	a5
.LVL2:
	mv	a5,a0
	sb	a5,-17(s0)
	.loc 1 4729 12
	lb	a5,-17(s0)
	.loc 1 4730 1
	mv	a0,a5
	lw	ra,44(sp)
	.cfi_restore 1
	lw	s0,40(sp)
	.cfi_restore 8
	addi	sp,sp,48
	.cfi_def_cfa_register 2
	jr	ra
	.cfi_endproc
.LFE47:
	.size	get_tap_detector_config, .-get_tap_detector_config
	.align	1
	.type	get_orient_config, @function
get_orient_config:
.LFB48:
	.loc 1 4738 1
	.cfi_startproc
	addi	sp,sp,-64
	.cfi_def_cfa_offset 64
	sw	ra,60(sp)
	sw	s0,56(sp)
	.cfi_offset 1, -4
	.cfi_offset 8, -8
	addi	s0,sp,64
	.cfi_def_cfa 8, 0
	sw	a0,-52(s0)
	sw	a1,-56(s0)
	.loc 1 4743 13
	sw	zero,-44(s0)
	sw	zero,-40(s0)
	sw	zero,-36(s0)
	sw	zero,-32(s0)
	.loc 1 4746 13
	sb	zero,-18(s0)
	.loc 1 4749 14
	sh	zero,-20(s0)
	.loc 1 4752 14
	sh	zero,-22(s0)
	.loc 1 4755 14
	sh	zero,-24(s0)
	.loc 1 4761 32
	sb	zero,-48(s0)
	sb	zero,-47(s0)
	sb	zero,-46(s0)
	.loc 1 4764 18
	addi	a5,s0,-48
	lw	a2,-56(s0)
	li	a1,14
	mv	a0,a5
	call	bmi2_extract_input_feat_config
	mv	a5,a0
	sb	a5,-25(s0)
	.loc 1 4765 8
	lbu	a5,-25(s0)
	beqz	a5,.L330
	.loc 1 4768 16
	lbu	a5,-47(s0)
	addi	a4,s0,-44
	lw	a2,-56(s0)
	mv	a1,a4
	mv	a0,a5
	call	bmi2_get_feat_config
	mv	a5,a0
	sb	a5,-17(s0)
	.loc 1 4769 12
	lb	a5,-17(s0)
	bnez	a5,.L332
	.loc 1 4772 17
	lbu	a5,-46(s0)
	sb	a5,-18(s0)
	.loc 1 4777 45
	lbu	a5,-18(s0)
	addi	a4,a5,1
	sb	a4,-18(s0)
	.loc 1 4777 41
	addi	a4,s0,-16
	add	a5,a4,a5
	lbu	a5,-28(a5)
	.loc 1 4777 17
	sh	a5,-20(s0)
	.loc 1 4778 46
	lbu	a5,-18(s0)
	addi	a4,a5,1
	sb	a4,-18(s0)
	.loc 1 4778 42
	addi	a4,s0,-16
	add	a5,a4,a5
	lbu	a5,-28(a5)
	slli	a5,a5,16
	srli	a5,a5,16
	.loc 1 4778 17
	slli	a5,a5,8
	sh	a5,-22(s0)
	.loc 1 4779 21
	lhu	a4,-20(s0)
	lhu	a5,-22(s0)
	or	a5,a4,a5
	sh	a5,-24(s0)
	.loc 1 4782 48
	lhu	a5,-24(s0)
	srai	a5,a5,1
	slli	a5,a5,16
	srli	a5,a5,16
	andi	a5,a5,1
	slli	a4,a5,16
	srli	a4,a4,16
	.loc 1 4782 27
	lw	a5,-52(s0)
	sh	a4,0(a5)
	.loc 1 4785 47
	lhu	a5,-24(s0)
	srai	a5,a5,2
	slli	a5,a5,16
	srli	a5,a5,16
	andi	a5,a5,3
	slli	a4,a5,16
	srli	a4,a4,16
	.loc 1 4785 26
	lw	a5,-52(s0)
	sh	a4,2(a5)
	.loc 1 4788 51
	lhu	a5,-24(s0)
	srai	a5,a5,4
	slli	a5,a5,16
	srli	a5,a5,16
	andi	a5,a5,3
	slli	a4,a5,16
	srli	a4,a4,16
	.loc 1 4788 30
	lw	a5,-52(s0)
	sh	a4,4(a5)
	.loc 1 4791 48
	lhu	a5,-24(s0)
	srai	a5,a5,6
	slli	a5,a5,16
	srli	a5,a5,16
	andi	a5,a5,63
	slli	a4,a5,16
	srli	a4,a4,16
	.loc 1 4791 27
	lw	a5,-52(s0)
	sh	a4,6(a5)
	.loc 1 4794 45
	lbu	a5,-18(s0)
	addi	a4,a5,1
	sb	a4,-18(s0)
	.loc 1 4794 41
	addi	a4,s0,-16
	add	a5,a4,a5
	lbu	a5,-28(a5)
	.loc 1 4794 17
	sh	a5,-20(s0)
	.loc 1 4795 46
	lbu	a5,-18(s0)
	addi	a4,a5,1
	sb	a4,-18(s0)
	.loc 1 4795 42
	addi	a4,s0,-16
	add	a5,a4,a5
	lbu	a5,-28(a5)
	slli	a5,a5,16
	srli	a5,a5,16
	.loc 1 4795 17
	slli	a5,a5,8
	sh	a5,-22(s0)
	.loc 1 4796 21
	lhu	a4,-20(s0)
	lhu	a5,-22(s0)
	or	a5,a4,a5
	sh	a5,-24(s0)
	.loc 1 4799 42
	lhu	a5,-24(s0)
	andi	a5,a5,2047
	slli	a4,a5,16
	srli	a4,a4,16
	.loc 1 4799 32
	lw	a5,-52(s0)
	sh	a4,8(a5)
	j	.L332
.L330:
	.loc 1 4804 14
	li	a5,-8
	sb	a5,-17(s0)
.L332:
	.loc 1 4807 12
	lb	a5,-17(s0)
	.loc 1 4808 1
	mv	a0,a5
	lw	ra,60(sp)
	.cfi_restore 1
	lw	s0,56(sp)
	.cfi_restore 8
	addi	sp,sp,64
	.cfi_def_cfa_register 2
	jr	ra
	.cfi_endproc
.LFE48:
	.size	get_orient_config, .-get_orient_config
	.align	1
	.type	get_high_g_config, @function
get_high_g_config:
.LFB49:
	.loc 1 4815 1
	.cfi_startproc
	addi	sp,sp,-64
	.cfi_def_cfa_offset 64
	sw	ra,60(sp)
	sw	s0,56(sp)
	.cfi_offset 1, -4
	.cfi_offset 8, -8
	addi	s0,sp,64
	.cfi_def_cfa 8, 0
	sw	a0,-52(s0)
	sw	a1,-56(s0)
	.loc 1 4820 13
	sw	zero,-44(s0)
	sw	zero,-40(s0)
	sw	zero,-36(s0)
	sw	zero,-32(s0)
	.loc 1 4823 13
	sb	zero,-18(s0)
	.loc 1 4826 14
	sh	zero,-20(s0)
	.loc 1 4829 14
	sh	zero,-22(s0)
	.loc 1 4832 14
	sh	zero,-24(s0)
	.loc 1 4838 32
	sb	zero,-48(s0)
	sb	zero,-47(s0)
	sb	zero,-46(s0)
	.loc 1 4841 18
	addi	a5,s0,-48
	lw	a2,-56(s0)
	li	a1,15
	mv	a0,a5
	call	bmi2_extract_input_feat_config
	mv	a5,a0
	sb	a5,-25(s0)
	.loc 1 4842 8
	lbu	a5,-25(s0)
	beqz	a5,.L335
	.loc 1 4845 16
	lbu	a5,-47(s0)
	addi	a4,s0,-44
	lw	a2,-56(s0)
	mv	a1,a4
	mv	a0,a5
	call	bmi2_get_feat_config
	mv	a5,a0
	sb	a5,-17(s0)
	.loc 1 4846 12
	lb	a5,-17(s0)
	bnez	a5,.L337
	.loc 1 4849 17
	lbu	a5,-46(s0)
	sb	a5,-18(s0)
	.loc 1 4852 45
	lbu	a5,-18(s0)
	addi	a4,a5,1
	sb	a4,-18(s0)
	.loc 1 4852 41
	addi	a4,s0,-16
	add	a5,a4,a5
	lbu	a5,-28(a5)
	.loc 1 4852 17
	sh	a5,-20(s0)
	.loc 1 4853 46
	lbu	a5,-18(s0)
	addi	a4,a5,1
	sb	a4,-18(s0)
	.loc 1 4853 42
	addi	a4,s0,-16
	add	a5,a4,a5
	lbu	a5,-28(a5)
	slli	a5,a5,16
	srli	a5,a5,16
	.loc 1 4853 17
	slli	a5,a5,8
	sh	a5,-22(s0)
	.loc 1 4854 21
	lhu	a4,-20(s0)
	lhu	a5,-22(s0)
	or	a5,a4,a5
	sh	a5,-24(s0)
	.loc 1 4857 41
	lhu	a4,-24(s0)
	li	a5,32768
	addi	a5,a5,-1
	and	a5,a4,a5
	slli	a4,a5,16
	srli	a4,a4,16
	.loc 1 4857 31
	lw	a5,-52(s0)
	sh	a4,0(a5)
	.loc 1 4860 45
	lbu	a5,-18(s0)
	addi	a4,a5,1
	sb	a4,-18(s0)
	.loc 1 4860 41
	addi	a4,s0,-16
	add	a5,a4,a5
	lbu	a5,-28(a5)
	.loc 1 4860 17
	sh	a5,-20(s0)
	.loc 1 4861 46
	lbu	a5,-18(s0)
	addi	a4,a5,1
	sb	a4,-18(s0)
	.loc 1 4861 42
	addi	a4,s0,-16
	add	a5,a4,a5
	lbu	a5,-28(a5)
	slli	a5,a5,16
	srli	a5,a5,16
	.loc 1 4861 17
	slli	a5,a5,8
	sh	a5,-22(s0)
	.loc 1 4862 21
	lhu	a4,-20(s0)
	lhu	a5,-22(s0)
	or	a5,a4,a5
	sh	a5,-24(s0)
	.loc 1 4865 42
	lhu	a4,-24(s0)
	li	a5,4096
	addi	a5,a5,-1
	and	a5,a4,a5
	slli	a4,a5,16
	srli	a4,a4,16
	.loc 1 4865 32
	lw	a5,-52(s0)
	sh	a4,2(a5)
	.loc 1 4868 51
	lhu	a5,-24(s0)
	srai	a5,a5,12
	slli	a5,a5,16
	srli	a5,a5,16
	andi	a5,a5,1
	slli	a4,a5,16
	srli	a4,a4,16
	.loc 1 4868 30
	lw	a5,-52(s0)
	sh	a4,4(a5)
	.loc 1 4871 51
	lhu	a5,-24(s0)
	srai	a5,a5,13
	slli	a5,a5,16
	srli	a5,a5,16
	andi	a5,a5,1
	slli	a4,a5,16
	srli	a4,a4,16
	.loc 1 4871 30
	lw	a5,-52(s0)
	sh	a4,6(a5)
	.loc 1 4874 51
	lhu	a5,-24(s0)
	srai	a5,a5,14
	slli	a5,a5,16
	srli	a5,a5,16
	andi	a5,a5,1
	slli	a4,a5,16
	srli	a4,a4,16
	.loc 1 4874 30
	lw	a5,-52(s0)
	sh	a4,8(a5)
	.loc 1 4877 45
	lbu	a5,-18(s0)
	addi	a4,a5,1
	sb	a4,-18(s0)
	.loc 1 4877 41
	addi	a4,s0,-16
	add	a5,a4,a5
	lbu	a5,-28(a5)
	.loc 1 4877 17
	sh	a5,-20(s0)
	.loc 1 4878 46
	lbu	a5,-18(s0)
	addi	a4,a5,1
	sb	a4,-18(s0)
	.loc 1 4878 42
	addi	a4,s0,-16
	add	a5,a4,a5
	lbu	a5,-28(a5)
	slli	a5,a5,16
	srli	a5,a5,16
	.loc 1 4878 17
	slli	a5,a5,8
	sh	a5,-22(s0)
	.loc 1 4879 21
	lhu	a4,-20(s0)
	lhu	a5,-22(s0)
	or	a5,a4,a5
	sh	a5,-24(s0)
	.loc 1 4882 40
	lhu	a4,-24(s0)
	li	a5,4096
	addi	a5,a5,-1
	and	a5,a4,a5
	slli	a4,a5,16
	srli	a4,a4,16
	.loc 1 4882 30
	lw	a5,-52(s0)
	sh	a4,10(a5)
	j	.L337
.L335:
	.loc 1 4887 14
	li	a5,-8
	sb	a5,-17(s0)
.L337:
	.loc 1 4890 12
	lb	a5,-17(s0)
	.loc 1 4891 1
	mv	a0,a5
	lw	ra,60(sp)
	.cfi_restore 1
	lw	s0,56(sp)
	.cfi_restore 8
	addi	sp,sp,64
	.cfi_def_cfa_register 2
	jr	ra
	.cfi_endproc
.LFE49:
	.size	get_high_g_config, .-get_high_g_config
	.align	1
	.type	get_low_g_config, @function
get_low_g_config:
.LFB50:
	.loc 1 4898 1
	.cfi_startproc
	addi	sp,sp,-64
	.cfi_def_cfa_offset 64
	sw	ra,60(sp)
	sw	s0,56(sp)
	.cfi_offset 1, -4
	.cfi_offset 8, -8
	addi	s0,sp,64
	.cfi_def_cfa 8, 0
	sw	a0,-52(s0)
	sw	a1,-56(s0)
	.loc 1 4903 13
	sw	zero,-44(s0)
	sw	zero,-40(s0)
	sw	zero,-36(s0)
	sw	zero,-32(s0)
	.loc 1 4906 13
	sb	zero,-18(s0)
	.loc 1 4909 14
	sh	zero,-20(s0)
	.loc 1 4912 14
	sh	zero,-22(s0)
	.loc 1 4915 14
	sh	zero,-24(s0)
	.loc 1 4921 32
	sb	zero,-48(s0)
	sb	zero,-47(s0)
	sb	zero,-46(s0)
	.loc 1 4924 18
	addi	a5,s0,-48
	lw	a2,-56(s0)
	li	a1,16
	mv	a0,a5
	call	bmi2_extract_input_feat_config
	mv	a5,a0
	sb	a5,-25(s0)
	.loc 1 4925 8
	lbu	a5,-25(s0)
	beqz	a5,.L340
	.loc 1 4928 16
	lbu	a5,-47(s0)
	addi	a4,s0,-44
	lw	a2,-56(s0)
	mv	a1,a4
	mv	a0,a5
	call	bmi2_get_feat_config
	mv	a5,a0
	sb	a5,-17(s0)
	.loc 1 4929 12
	lb	a5,-17(s0)
	bnez	a5,.L342
	.loc 1 4932 17
	lbu	a5,-46(s0)
	sb	a5,-18(s0)
	.loc 1 4935 45
	lbu	a5,-18(s0)
	addi	a4,a5,1
	sb	a4,-18(s0)
	.loc 1 4935 41
	addi	a4,s0,-16
	add	a5,a4,a5
	lbu	a5,-28(a5)
	.loc 1 4935 17
	sh	a5,-20(s0)
	.loc 1 4936 46
	lbu	a5,-18(s0)
	addi	a4,a5,1
	sb	a4,-18(s0)
	.loc 1 4936 42
	addi	a4,s0,-16
	add	a5,a4,a5
	lbu	a5,-28(a5)
	slli	a5,a5,16
	srli	a5,a5,16
	.loc 1 4936 17
	slli	a5,a5,8
	sh	a5,-22(s0)
	.loc 1 4937 21
	lhu	a4,-20(s0)
	lhu	a5,-22(s0)
	or	a5,a4,a5
	sh	a5,-24(s0)
	.loc 1 4940 41
	lhu	a4,-24(s0)
	li	a5,32768
	addi	a5,a5,-1
	and	a5,a4,a5
	slli	a4,a5,16
	srli	a4,a4,16
	.loc 1 4940 31
	lw	a5,-52(s0)
	sh	a4,0(a5)
	.loc 1 4943 45
	lbu	a5,-18(s0)
	addi	a4,a5,1
	sb	a4,-18(s0)
	.loc 1 4943 41
	addi	a4,s0,-16
	add	a5,a4,a5
	lbu	a5,-28(a5)
	.loc 1 4943 17
	sh	a5,-20(s0)
	.loc 1 4944 46
	lbu	a5,-18(s0)
	addi	a4,a5,1
	sb	a4,-18(s0)
	.loc 1 4944 42
	addi	a4,s0,-16
	add	a5,a4,a5
	lbu	a5,-28(a5)
	slli	a5,a5,16
	srli	a5,a5,16
	.loc 1 4944 17
	slli	a5,a5,8
	sh	a5,-22(s0)
	.loc 1 4945 21
	lhu	a4,-20(s0)
	lhu	a5,-22(s0)
	or	a5,a4,a5
	sh	a5,-24(s0)
	.loc 1 4948 42
	lhu	a4,-24(s0)
	li	a5,4096
	addi	a5,a5,-1
	and	a5,a4,a5
	slli	a4,a5,16
	srli	a4,a4,16
	.loc 1 4948 32
	lw	a5,-52(s0)
	sh	a4,2(a5)
	.loc 1 4951 45
	lbu	a5,-18(s0)
	addi	a4,a5,1
	sb	a4,-18(s0)
	.loc 1 4951 41
	addi	a4,s0,-16
	add	a5,a4,a5
	lbu	a5,-28(a5)
	.loc 1 4951 17
	sh	a5,-20(s0)
	.loc 1 4952 46
	lbu	a5,-18(s0)
	addi	a4,a5,1
	sb	a4,-18(s0)
	.loc 1 4952 42
	addi	a4,s0,-16
	add	a5,a4,a5
	lbu	a5,-28(a5)
	slli	a5,a5,16
	srli	a5,a5,16
	.loc 1 4952 17
	slli	a5,a5,8
	sh	a5,-22(s0)
	.loc 1 4953 21
	lhu	a4,-20(s0)
	lhu	a5,-22(s0)
	or	a5,a4,a5
	sh	a5,-24(s0)
	.loc 1 4956 40
	lhu	a4,-24(s0)
	li	a5,4096
	addi	a5,a5,-1
	and	a5,a4,a5
	slli	a4,a5,16
	srli	a4,a4,16
	.loc 1 4956 30
	lw	a5,-52(s0)
	sh	a4,4(a5)
	j	.L342
.L340:
	.loc 1 4961 14
	li	a5,-8
	sb	a5,-17(s0)
.L342:
	.loc 1 4964 12
	lb	a5,-17(s0)
	.loc 1 4965 1
	mv	a0,a5
	lw	ra,60(sp)
	.cfi_restore 1
	lw	s0,56(sp)
	.cfi_restore 8
	addi	sp,sp,64
	.cfi_def_cfa_register 2
	jr	ra
	.cfi_endproc
.LFE50:
	.size	get_low_g_config, .-get_low_g_config
	.align	1
	.type	get_flat_config, @function
get_flat_config:
.LFB51:
	.loc 1 4972 1
	.cfi_startproc
	addi	sp,sp,-64
	.cfi_def_cfa_offset 64
	sw	ra,60(sp)
	sw	s0,56(sp)
	.cfi_offset 1, -4
	.cfi_offset 8, -8
	addi	s0,sp,64
	.cfi_def_cfa 8, 0
	sw	a0,-52(s0)
	sw	a1,-56(s0)
	.loc 1 4977 13
	sw	zero,-44(s0)
	sw	zero,-40(s0)
	sw	zero,-36(s0)
	sw	zero,-32(s0)
	.loc 1 4980 13
	sb	zero,-18(s0)
	.loc 1 4983 14
	sh	zero,-20(s0)
	.loc 1 4986 14
	sh	zero,-22(s0)
	.loc 1 4989 14
	sh	zero,-24(s0)
	.loc 1 4995 32
	sb	zero,-48(s0)
	sb	zero,-47(s0)
	sb	zero,-46(s0)
	.loc 1 4998 18
	addi	a5,s0,-48
	lw	a2,-56(s0)
	li	a1,17
	mv	a0,a5
	call	bmi2_extract_input_feat_config
	mv	a5,a0
	sb	a5,-25(s0)
	.loc 1 4999 8
	lbu	a5,-25(s0)
	beqz	a5,.L345
	.loc 1 5002 16
	lbu	a5,-47(s0)
	addi	a4,s0,-44
	lw	a2,-56(s0)
	mv	a1,a4
	mv	a0,a5
	call	bmi2_get_feat_config
	mv	a5,a0
	sb	a5,-17(s0)
	.loc 1 5003 12
	lb	a5,-17(s0)
	bnez	a5,.L347
	.loc 1 5006 17
	lbu	a5,-46(s0)
	sb	a5,-18(s0)
	.loc 1 5009 45
	lbu	a5,-18(s0)
	addi	a4,a5,1
	sb	a4,-18(s0)
	.loc 1 5009 41
	addi	a4,s0,-16
	add	a5,a4,a5
	lbu	a5,-28(a5)
	.loc 1 5009 17
	sh	a5,-20(s0)
	.loc 1 5010 46
	lbu	a5,-18(s0)
	addi	a4,a5,1
	sb	a4,-18(s0)
	.loc 1 5010 42
	addi	a4,s0,-16
	add	a5,a4,a5
	lbu	a5,-28(a5)
	slli	a5,a5,16
	srli	a5,a5,16
	.loc 1 5010 17
	slli	a5,a5,8
	sh	a5,-22(s0)
	.loc 1 5011 21
	lhu	a4,-20(s0)
	lhu	a5,-22(s0)
	or	a5,a4,a5
	sh	a5,-24(s0)
	.loc 1 5014 48
	lhu	a5,-24(s0)
	srai	a5,a5,1
	slli	a5,a5,16
	srli	a5,a5,16
	andi	a5,a5,63
	slli	a4,a5,16
	srli	a4,a4,16
	.loc 1 5014 27
	lw	a5,-52(s0)
	sh	a4,0(a5)
	.loc 1 5017 51
	lhu	a5,-24(s0)
	srai	a5,a5,7
	slli	a5,a5,16
	srli	a5,a5,16
	andi	a5,a5,3
	slli	a4,a5,16
	srli	a4,a4,16
	.loc 1 5017 30
	lw	a5,-52(s0)
	sh	a4,2(a5)
	.loc 1 5020 45
	lbu	a5,-18(s0)
	addi	a4,a5,1
	sb	a4,-18(s0)
	.loc 1 5020 41
	addi	a4,s0,-16
	add	a5,a4,a5
	lbu	a5,-28(a5)
	.loc 1 5020 17
	sh	a5,-20(s0)
	.loc 1 5021 46
	lbu	a5,-18(s0)
	addi	a4,a5,1
	sb	a4,-18(s0)
	.loc 1 5021 42
	addi	a4,s0,-16
	add	a5,a4,a5
	lbu	a5,-28(a5)
	slli	a5,a5,16
	srli	a5,a5,16
	.loc 1 5021 17
	slli	a5,a5,8
	sh	a5,-22(s0)
	.loc 1 5022 21
	lhu	a4,-20(s0)
	lhu	a5,-22(s0)
	or	a5,a4,a5
	sh	a5,-24(s0)
	.loc 1 5025 42
	lhu	a5,-24(s0)
	andi	a5,a5,63
	slli	a4,a5,16
	srli	a4,a4,16
	.loc 1 5025 32
	lw	a5,-52(s0)
	sh	a4,4(a5)
	.loc 1 5028 52
	lhu	a5,-24(s0)
	srai	a5,a5,6
	slli	a5,a5,16
	srli	a5,a5,16
	andi	a5,a5,255
	slli	a4,a5,16
	srli	a4,a4,16
	.loc 1 5028 31
	lw	a5,-52(s0)
	sh	a4,6(a5)
	j	.L347
.L345:
	.loc 1 5033 14
	li	a5,-8
	sb	a5,-17(s0)
.L347:
	.loc 1 5036 12
	lb	a5,-17(s0)
	.loc 1 5037 1
	mv	a0,a5
	lw	ra,60(sp)
	.cfi_restore 1
	lw	s0,56(sp)
	.cfi_restore 8
	addi	sp,sp,64
	.cfi_def_cfa_register 2
	jr	ra
	.cfi_endproc
.LFE51:
	.size	get_flat_config, .-get_flat_config
	.align	1
	.type	get_high_g_output, @function
get_high_g_output:
.LFB52:
	.loc 1 5043 1
	.cfi_startproc
	addi	sp,sp,-64
	.cfi_def_cfa_offset 64
	sw	ra,60(sp)
	sw	s0,56(sp)
	.cfi_offset 1, -4
	.cfi_offset 8, -8
	addi	s0,sp,64
	.cfi_def_cfa 8, 0
	sw	a0,-52(s0)
	sw	a1,-56(s0)
	.loc 1 5048 13
	sw	zero,-36(s0)
	sw	zero,-32(s0)
	sw	zero,-28(s0)
	sw	zero,-24(s0)
	.loc 1 5051 13
	sb	zero,-18(s0)
	.loc 1 5057 32
	sb	zero,-40(s0)
	sb	zero,-39(s0)
	sb	zero,-38(s0)
	.loc 1 5060 18
	addi	a5,s0,-40
	lw	a2,-56(s0)
	li	a1,15
	mv	a0,a5
	call	extract_output_feat_config
	mv	a5,a0
	sb	a5,-19(s0)
	.loc 1 5061 8
	lbu	a5,-19(s0)
	beqz	a5,.L350
	.loc 1 5064 16
	lbu	a5,-39(s0)
	addi	a4,s0,-36
	lw	a2,-56(s0)
	mv	a1,a4
	mv	a0,a5
	call	bmi2_get_feat_config
	mv	a5,a0
	sb	a5,-17(s0)
	.loc 1 5065 12
	lb	a5,-17(s0)
	bnez	a5,.L352
	.loc 1 5068 17
	lbu	a5,-38(s0)
	sb	a5,-18(s0)
	.loc 1 5071 38
	lbu	a5,-18(s0)
	addi	a4,s0,-16
	add	a5,a4,a5
	lbu	a4,-20(a5)
	.loc 1 5071 25
	lw	a5,-52(s0)
	sb	a4,0(a5)
	j	.L352
.L350:
	.loc 1 5076 14
	li	a5,-8
	sb	a5,-17(s0)
.L352:
	.loc 1 5079 12
	lb	a5,-17(s0)
	.loc 1 5080 1
	mv	a0,a5
	lw	ra,60(sp)
	.cfi_restore 1
	lw	s0,56(sp)
	.cfi_restore 8
	addi	sp,sp,64
	.cfi_def_cfa_register 2
	jr	ra
	.cfi_endproc
.LFE52:
	.size	get_high_g_output, .-get_high_g_output
	.align	1
	.type	get_step_counter_output, @function
get_step_counter_output:
.LFB53:
	.loc 1 5086 1
	.cfi_startproc
	addi	sp,sp,-64
	.cfi_def_cfa_offset 64
	sw	ra,60(sp)
	sw	s0,56(sp)
	.cfi_offset 1, -4
	.cfi_offset 8, -8
	addi	s0,sp,64
	.cfi_def_cfa 8, 0
	sw	a0,-52(s0)
	sw	a1,-56(s0)
	.loc 1 5091 13
	sw	zero,-36(s0)
	sw	zero,-32(s0)
	sw	zero,-28(s0)
	sw	zero,-24(s0)
	.loc 1 5094 13
	sb	zero,-18(s0)
	.loc 1 5100 32
	sb	zero,-40(s0)
	sb	zero,-39(s0)
	sb	zero,-38(s0)
	.loc 1 5103 18
	addi	a5,s0,-40
	lw	a2,-56(s0)
	li	a1,7
	mv	a0,a5
	call	extract_output_feat_config
	mv	a5,a0
	sb	a5,-19(s0)
	.loc 1 5104 8
	lbu	a5,-19(s0)
	beqz	a5,.L355
	.loc 1 5107 16
	lbu	a5,-39(s0)
	addi	a4,s0,-36
	lw	a2,-56(s0)
	mv	a1,a4
	mv	a0,a5
	call	bmi2_get_feat_config
	mv	a5,a0
	sb	a5,-17(s0)
	.loc 1 5108 12
	lb	a5,-17(s0)
	bnez	a5,.L357
	.loc 1 5111 17
	lbu	a5,-38(s0)
	sb	a5,-18(s0)
	.loc 1 5114 53
	lbu	a5,-18(s0)
	addi	a4,a5,1
	sb	a4,-18(s0)
	.loc 1 5114 49
	addi	a4,s0,-16
	add	a5,a4,a5
	lbu	a5,-20(a5)
	.loc 1 5114 27
	mv	a4,a5
	.loc 1 5114 25
	lw	a5,-52(s0)
	sw	a4,0(a5)
	.loc 1 5115 55
	lbu	a5,-18(s0)
	addi	a4,a5,1
	sb	a4,-18(s0)
	.loc 1 5115 51
	addi	a4,s0,-16
	add	a5,a4,a5
	lbu	a5,-20(a5)
	.loc 1 5115 59
	slli	a4,a5,8
	.loc 1 5115 25
	lw	a5,-52(s0)
	lw	a5,0(a5)
	or	a4,a4,a5
	lw	a5,-52(s0)
	sw	a4,0(a5)
	.loc 1 5116 55
	lbu	a5,-18(s0)
	addi	a4,a5,1
	sb	a4,-18(s0)
	.loc 1 5116 51
	addi	a4,s0,-16
	add	a5,a4,a5
	lbu	a5,-20(a5)
	.loc 1 5116 59
	slli	a4,a5,16
	.loc 1 5116 25
	lw	a5,-52(s0)
	lw	a5,0(a5)
	or	a4,a4,a5
	lw	a5,-52(s0)
	sw	a4,0(a5)
	.loc 1 5117 55
	lbu	a5,-18(s0)
	addi	a4,a5,1
	sb	a4,-18(s0)
	.loc 1 5117 51
	addi	a4,s0,-16
	add	a5,a4,a5
	lbu	a5,-20(a5)
	.loc 1 5117 59
	slli	a4,a5,24
	.loc 1 5117 25
	lw	a5,-52(s0)
	lw	a5,0(a5)
	or	a4,a4,a5
	lw	a5,-52(s0)
	sw	a4,0(a5)
	j	.L357
.L355:
	.loc 1 5122 14
	li	a5,-8
	sb	a5,-17(s0)
.L357:
	.loc 1 5125 12
	lb	a5,-17(s0)
	.loc 1 5126 1
	mv	a0,a5
	lw	ra,60(sp)
	.cfi_restore 1
	lw	s0,56(sp)
	.cfi_restore 8
	addi	sp,sp,64
	.cfi_def_cfa_register 2
	jr	ra
	.cfi_endproc
.LFE53:
	.size	get_step_counter_output, .-get_step_counter_output
	.align	1
	.type	get_nvm_error_status, @function
get_nvm_error_status:
.LFB54:
	.loc 1 5132 1
	.cfi_startproc
	addi	sp,sp,-64
	.cfi_def_cfa_offset 64
	sw	ra,60(sp)
	sw	s0,56(sp)
	.cfi_offset 1, -4
	.cfi_offset 8, -8
	addi	s0,sp,64
	.cfi_def_cfa 8, 0
	sw	a0,-52(s0)
	sw	a1,-56(s0)
	.loc 1 5137 13
	sw	zero,-36(s0)
	sw	zero,-32(s0)
	sw	zero,-28(s0)
	sw	zero,-24(s0)
	.loc 1 5140 13
	sb	zero,-18(s0)
	.loc 1 5146 32
	sb	zero,-40(s0)
	sb	zero,-39(s0)
	sb	zero,-38(s0)
	.loc 1 5149 18
	addi	a5,s0,-40
	lw	a2,-56(s0)
	li	a1,39
	mv	a0,a5
	call	extract_output_feat_config
	mv	a5,a0
	sb	a5,-19(s0)
	.loc 1 5150 8
	lbu	a5,-19(s0)
	beqz	a5,.L360
	.loc 1 5153 16
	lbu	a5,-39(s0)
	addi	a4,s0,-36
	lw	a2,-56(s0)
	mv	a1,a4
	mv	a0,a5
	call	bmi2_get_feat_config
	mv	a5,a0
	sb	a5,-17(s0)
	.loc 1 5154 12
	lb	a5,-17(s0)
	bnez	a5,.L362
	.loc 1 5157 17
	lbu	a5,-38(s0)
	sb	a5,-18(s0)
	.loc 1 5160 16
	lbu	a5,-18(s0)
	addi	a5,a5,1
	sb	a5,-18(s0)
	.loc 1 5163 52
	lbu	a5,-18(s0)
	addi	a4,s0,-16
	add	a5,a4,a5
	lbu	a5,-20(a5)
	.loc 1 5163 58
	andi	a5,a5,1
	andi	a4,a5,0xff
	.loc 1 5163 38
	lw	a5,-52(s0)
	sb	a4,0(a5)
	.loc 1 5166 53
	lbu	a5,-18(s0)
	addi	a4,s0,-16
	add	a5,a4,a5
	lbu	a5,-20(a5)
	.loc 1 5166 69
	srai	a5,a5,1
	andi	a5,a5,0xff
	andi	a5,a5,1
	andi	a4,a5,0xff
	.loc 1 5166 38
	lw	a5,-52(s0)
	sb	a4,1(a5)
	.loc 1 5169 54
	lbu	a5,-18(s0)
	addi	a4,s0,-16
	add	a5,a4,a5
	lbu	a5,-20(a5)
	.loc 1 5169 70
	srai	a5,a5,2
	andi	a5,a5,0xff
	andi	a5,a5,1
	andi	a4,a5,0xff
	.loc 1 5169 39
	lw	a5,-52(s0)
	sb	a4,2(a5)
	.loc 1 5172 55
	lbu	a5,-18(s0)
	addi	a4,s0,-16
	add	a5,a4,a5
	lbu	a5,-20(a5)
	.loc 1 5172 71
	srai	a5,a5,3
	andi	a5,a5,0xff
	andi	a5,a5,1
	andi	a4,a5,0xff
	.loc 1 5172 40
	lw	a5,-52(s0)
	sb	a4,3(a5)
	.loc 1 5175 55
	lbu	a5,-18(s0)
	addi	a4,s0,-16
	add	a5,a4,a5
	lbu	a5,-20(a5)
	.loc 1 5175 71
	srai	a5,a5,4
	andi	a5,a5,0xff
	andi	a5,a5,1
	andi	a4,a5,0xff
	.loc 1 5175 40
	lw	a5,-52(s0)
	sb	a4,4(a5)
	j	.L362
.L360:
	.loc 1 5180 14
	li	a5,-8
	sb	a5,-17(s0)
.L362:
	.loc 1 5183 12
	lb	a5,-17(s0)
	.loc 1 5184 1
	mv	a0,a5
	lw	ra,60(sp)
	.cfi_restore 1
	lw	s0,56(sp)
	.cfi_restore 8
	addi	sp,sp,64
	.cfi_def_cfa_register 2
	jr	ra
	.cfi_endproc
.LFE54:
	.size	get_nvm_error_status, .-get_nvm_error_status
	.align	1
	.type	get_user_gain_upd_status, @function
get_user_gain_upd_status:
.LFB55:
	.loc 1 5191 1
	.cfi_startproc
	addi	sp,sp,-64
	.cfi_def_cfa_offset 64
	sw	ra,60(sp)
	sw	s0,56(sp)
	.cfi_offset 1, -4
	.cfi_offset 8, -8
	addi	s0,sp,64
	.cfi_def_cfa 8, 0
	sw	a0,-52(s0)
	sw	a1,-56(s0)
	.loc 1 5193 12
	sb	zero,-17(s0)
	.loc 1 5196 13
	sw	zero,-36(s0)
	sw	zero,-32(s0)
	sw	zero,-28(s0)
	sw	zero,-24(s0)
	.loc 1 5199 13
	sb	zero,-19(s0)
	.loc 1 5205 13
	sb	zero,-18(s0)
	.loc 1 5208 32
	sb	zero,-40(s0)
	sb	zero,-39(s0)
	sb	zero,-38(s0)
	.loc 1 5211 18
	addi	a5,s0,-40
	lw	a2,-56(s0)
	li	a1,9
	mv	a0,a5
	call	bmi2_extract_input_feat_config
	mv	a5,a0
	sb	a5,-20(s0)
	.loc 1 5212 8
	lbu	a5,-20(s0)
	beqz	a5,.L365
	.loc 1 5215 18
	lw	a5,-56(s0)
	lbu	a5,79(a5)
	sb	a5,-18(s0)
	.loc 1 5216 12
	lbu	a4,-18(s0)
	li	a5,1
	bne	a4,a5,.L366
	.loc 1 5218 20
	lw	a1,-56(s0)
	li	a0,0
	call	bmi2_set_adv_power_save
	mv	a5,a0
	sb	a5,-17(s0)
.L366:
	.loc 1 5221 12
	lb	a5,-17(s0)
	bnez	a5,.L368
	.loc 1 5224 20
	lbu	a5,-39(s0)
	addi	a4,s0,-36
	lw	a2,-56(s0)
	mv	a1,a4
	mv	a0,a5
	call	bmi2_get_feat_config
	mv	a5,a0
	sb	a5,-17(s0)
	.loc 1 5225 16
	lb	a5,-17(s0)
	bnez	a5,.L368
	.loc 1 5228 40
	lbu	a5,-38(s0)
	.loc 1 5228 21
	addi	a5,a5,5
	sb	a5,-19(s0)
	.loc 1 5231 40
	lbu	a5,-19(s0)
	addi	a4,s0,-16
	add	a5,a4,a5
	lbu	a5,-20(a5)
	.loc 1 5231 56
	srai	a5,a5,3
	andi	a5,a5,0xff
	andi	a5,a5,1
	andi	a4,a5,0xff
	.loc 1 5231 25
	lw	a5,-52(s0)
	sb	a4,0(a5)
	j	.L368
.L365:
	.loc 1 5237 14
	li	a5,-8
	sb	a5,-17(s0)
.L368:
	.loc 1 5241 8
	lb	a5,-17(s0)
	bnez	a5,.L369
	.loc 1 5241 21 discriminator 1
	lbu	a4,-18(s0)
	li	a5,1
	bne	a4,a5,.L369
	.loc 1 5243 16
	lw	a1,-56(s0)
	li	a0,1
	call	bmi2_set_adv_power_save
	mv	a5,a0
	sb	a5,-17(s0)
.L369:
	.loc 1 5246 12
	lb	a5,-17(s0)
	.loc 1 5247 1
	mv	a0,a5
	lw	ra,60(sp)
	.cfi_restore 1
	lw	s0,56(sp)
	.cfi_restore 8
	addi	sp,sp,64
	.cfi_def_cfa_register 2
	jr	ra
	.cfi_endproc
.LFE55:
	.size	get_user_gain_upd_status, .-get_user_gain_upd_status
	.align	1
	.type	get_step_activity_output, @function
get_step_activity_output:
.LFB56:
	.loc 1 5253 1
	.cfi_startproc
	addi	sp,sp,-64
	.cfi_def_cfa_offset 64
	sw	ra,60(sp)
	sw	s0,56(sp)
	.cfi_offset 1, -4
	.cfi_offset 8, -8
	addi	s0,sp,64
	.cfi_def_cfa 8, 0
	sw	a0,-52(s0)
	sw	a1,-56(s0)
	.loc 1 5258 13
	sw	zero,-36(s0)
	sw	zero,-32(s0)
	sw	zero,-28(s0)
	sw	zero,-24(s0)
	.loc 1 5261 13
	sb	zero,-18(s0)
	.loc 1 5267 32
	sb	zero,-40(s0)
	sb	zero,-39(s0)
	sb	zero,-38(s0)
	.loc 1 5270 18
	addi	a5,s0,-40
	lw	a2,-56(s0)
	li	a1,8
	mv	a0,a5
	call	extract_output_feat_config
	mv	a5,a0
	sb	a5,-19(s0)
	.loc 1 5271 8
	lbu	a5,-19(s0)
	beqz	a5,.L372
	.loc 1 5274 16
	lbu	a5,-39(s0)
	addi	a4,s0,-36
	lw	a2,-56(s0)
	mv	a1,a4
	mv	a0,a5
	call	bmi2_get_feat_config
	mv	a5,a0
	sb	a5,-17(s0)
	.loc 1 5275 12
	lb	a5,-17(s0)
	bnez	a5,.L374
	.loc 1 5278 17
	lbu	a5,-38(s0)
	sb	a5,-18(s0)
	.loc 1 5281 36
	lbu	a5,-18(s0)
	addi	a4,s0,-16
	add	a5,a4,a5
	lbu	a4,-20(a5)
	.loc 1 5281 23
	lw	a5,-52(s0)
	sb	a4,0(a5)
	j	.L374
.L372:
	.loc 1 5286 14
	li	a5,-8
	sb	a5,-17(s0)
.L374:
	.loc 1 5289 12
	lb	a5,-17(s0)
	.loc 1 5290 1
	mv	a0,a5
	lw	ra,60(sp)
	.cfi_restore 1
	lw	s0,56(sp)
	.cfi_restore 8
	addi	sp,sp,64
	.cfi_def_cfa_register 2
	jr	ra
	.cfi_endproc
.LFE56:
	.size	get_step_activity_output, .-get_step_activity_output
	.align	1
	.type	get_orient_output, @function
get_orient_output:
.LFB57:
	.loc 1 5297 1
	.cfi_startproc
	addi	sp,sp,-64
	.cfi_def_cfa_offset 64
	sw	ra,60(sp)
	sw	s0,56(sp)
	.cfi_offset 1, -4
	.cfi_offset 8, -8
	addi	s0,sp,64
	.cfi_def_cfa 8, 0
	sw	a0,-52(s0)
	sw	a1,-56(s0)
	.loc 1 5302 13
	sw	zero,-36(s0)
	sw	zero,-32(s0)
	sw	zero,-28(s0)
	sw	zero,-24(s0)
	.loc 1 5305 13
	sb	zero,-18(s0)
	.loc 1 5311 32
	sb	zero,-40(s0)
	sb	zero,-39(s0)
	sb	zero,-38(s0)
	.loc 1 5314 18
	addi	a5,s0,-40
	lw	a2,-56(s0)
	li	a1,14
	mv	a0,a5
	call	extract_output_feat_config
	mv	a5,a0
	sb	a5,-19(s0)
	.loc 1 5315 8
	lbu	a5,-19(s0)
	beqz	a5,.L377
	.loc 1 5318 16
	lbu	a5,-39(s0)
	addi	a4,s0,-36
	lw	a2,-56(s0)
	mv	a1,a4
	mv	a0,a5
	call	bmi2_get_feat_config
	mv	a5,a0
	sb	a5,-17(s0)
	.loc 1 5319 12
	lb	a5,-17(s0)
	bnez	a5,.L379
	.loc 1 5322 17
	lbu	a5,-38(s0)
	sb	a5,-18(s0)
	.loc 1 5325 58
	lbu	a5,-18(s0)
	addi	a4,s0,-16
	add	a5,a4,a5
	lbu	a5,-20(a5)
	.loc 1 5325 64
	andi	a5,a5,3
	andi	a4,a5,0xff
	.loc 1 5325 44
	lw	a5,-52(s0)
	sb	a4,0(a5)
	.loc 1 5328 52
	lbu	a5,-18(s0)
	addi	a4,s0,-16
	add	a5,a4,a5
	lbu	a5,-20(a5)
	.loc 1 5328 68
	srai	a5,a5,2
	andi	a5,a5,0xff
	andi	a5,a5,1
	andi	a4,a5,0xff
	.loc 1 5328 37
	lw	a5,-52(s0)
	sb	a4,1(a5)
	j	.L379
.L377:
	.loc 1 5333 14
	li	a5,-8
	sb	a5,-17(s0)
.L379:
	.loc 1 5336 12
	lb	a5,-17(s0)
	.loc 1 5337 1
	mv	a0,a5
	lw	ra,60(sp)
	.cfi_restore 1
	lw	s0,56(sp)
	.cfi_restore 8
	addi	sp,sp,64
	.cfi_def_cfa_register 2
	jr	ra
	.cfi_endproc
.LFE57:
	.size	get_orient_output, .-get_orient_output
	.align	1
	.type	enable_gyro_gain, @function
enable_gyro_gain:
.LFB58:
	.loc 1 5344 1
	.cfi_startproc
	addi	sp,sp,-48
	.cfi_def_cfa_offset 48
	sw	ra,44(sp)
	sw	s0,40(sp)
	.cfi_offset 1, -4
	.cfi_offset 8, -8
	addi	s0,sp,48
	.cfi_def_cfa 8, 0
	mv	a5,a0
	sw	a1,-40(s0)
	sb	a5,-33(s0)
	.loc 1 5349 13
	sb	zero,-18(s0)
	.loc 1 5351 12
	addi	a5,s0,-18
	lw	a3,-40(s0)
	li	a2,1
	mv	a1,a5
	li	a0,119
	call	bmi2_get_regs
	mv	a5,a0
	sb	a5,-17(s0)
	.loc 1 5352 8
	lb	a5,-17(s0)
	bnez	a5,.L382
	.loc 1 5354 31
	lbu	a5,-18(s0)
	slli	a5,a5,24
	srai	a5,a5,24
	andi	a5,a5,127
	slli	a4,a5,24
	srai	a4,a4,24
	.loc 1 5354 53
	lbu	a5,-33(s0)
	slli	a5,a5,7
	.loc 1 5354 42
	slli	a5,a5,24
	srai	a5,a5,24
	or	a5,a4,a5
	slli	a5,a5,24
	srai	a5,a5,24
	andi	a5,a5,0xff
	.loc 1 5354 18
	sb	a5,-18(s0)
	.loc 1 5355 16
	addi	a5,s0,-18
	lw	a3,-40(s0)
	li	a2,1
	mv	a1,a5
	li	a0,119
	call	bmi2_set_regs
	mv	a5,a0
	sb	a5,-17(s0)
.L382:
	.loc 1 5358 12
	lb	a5,-17(s0)
	.loc 1 5359 1
	mv	a0,a5
	lw	ra,44(sp)
	.cfi_restore 1
	lw	s0,40(sp)
	.cfi_restore 8
	addi	sp,sp,48
	.cfi_def_cfa_register 2
	jr	ra
	.cfi_endproc
.LFE58:
	.size	enable_gyro_gain, .-enable_gyro_gain
	.align	1
	.type	extract_output_feat_config, @function
extract_output_feat_config:
.LFB59:
	.loc 1 5368 1
	.cfi_startproc
	addi	sp,sp,-48
	.cfi_def_cfa_offset 48
	sw	s0,44(sp)
	.cfi_offset 8, -4
	addi	s0,sp,48
	.cfi_def_cfa 8, 0
	sw	a0,-36(s0)
	mv	a5,a1
	sw	a2,-44(s0)
	sb	a5,-37(s0)
	.loc 1 5370 13
	sb	zero,-17(s0)
	.loc 1 5373 13
	sb	zero,-18(s0)
	.loc 1 5376 11
	j	.L385
.L388:
	.loc 1 5378 16
	lw	a5,-44(s0)
	lw	a3,40(a5)
	.loc 1 5378 29
	lbu	a4,-17(s0)
	mv	a5,a4
	slli	a5,a5,1
	add	a5,a5,a4
	add	a5,a3,a5
	.loc 1 5378 35
	lbu	a5,0(a5)
	.loc 1 5378 12
	lbu	a4,-37(s0)
	bne	a4,a5,.L386
	.loc 1 5380 31
	lw	a5,-44(s0)
	lw	a3,40(a5)
	.loc 1 5380 44
	lbu	a4,-17(s0)
	mv	a5,a4
	slli	a5,a5,1
	add	a5,a5,a4
	add	a4,a3,a5
	.loc 1 5380 26
	lw	a5,-36(s0)
	lbu	a3,0(a4)
	sb	a3,0(a5)
	lbu	a3,1(a4)
	sb	a3,1(a5)
	lbu	a4,2(a4)
	sb	a4,2(a5)
	.loc 1 5381 24
	li	a5,1
	sb	a5,-18(s0)
	.loc 1 5382 13
	j	.L387
.L386:
	.loc 1 5385 13
	lbu	a5,-17(s0)
	addi	a5,a5,1
	sb	a5,-17(s0)
.L385:
	.loc 1 5376 22
	lw	a5,-44(s0)
	lbu	a5,30(a5)
	.loc 1 5376 11
	lbu	a4,-17(s0)
	bltu	a4,a5,.L388
.L387:
	.loc 1 5389 12
	lbu	a5,-18(s0)
	.loc 1 5390 1
	mv	a0,a5
	lw	s0,44(sp)
	.cfi_restore 8
	addi	sp,sp,48
	.cfi_def_cfa_register 2
	jr	ra
	.cfi_endproc
.LFE59:
	.size	extract_output_feat_config, .-extract_output_feat_config
	.align	1
	.type	get_vfrm_error_status, @function
get_vfrm_error_status:
.LFB60:
	.loc 1 5396 1
	.cfi_startproc
	addi	sp,sp,-64
	.cfi_def_cfa_offset 64
	sw	ra,60(sp)
	sw	s0,56(sp)
	.cfi_offset 1, -4
	.cfi_offset 8, -8
	addi	s0,sp,64
	.cfi_def_cfa 8, 0
	sw	a0,-52(s0)
	sw	a1,-56(s0)
	.loc 1 5401 13
	sw	zero,-36(s0)
	sw	zero,-32(s0)
	sw	zero,-28(s0)
	sw	zero,-24(s0)
	.loc 1 5404 13
	sb	zero,-18(s0)
	.loc 1 5410 32
	sb	zero,-40(s0)
	sb	zero,-39(s0)
	sb	zero,-38(s0)
	.loc 1 5413 18
	addi	a5,s0,-40
	lw	a2,-56(s0)
	li	a1,40
	mv	a0,a5
	call	extract_output_feat_config
	mv	a5,a0
	sb	a5,-19(s0)
	.loc 1 5414 8
	lbu	a5,-19(s0)
	beqz	a5,.L391
	.loc 1 5417 16
	lbu	a5,-39(s0)
	addi	a4,s0,-36
	lw	a2,-56(s0)
	mv	a1,a4
	mv	a0,a5
	call	bmi2_get_feat_config
	mv	a5,a0
	sb	a5,-17(s0)
	.loc 1 5418 12
	lb	a5,-17(s0)
	bnez	a5,.L393
	.loc 1 5421 17
	lbu	a5,-38(s0)
	sb	a5,-18(s0)
	.loc 1 5424 16
	lbu	a5,-18(s0)
	addi	a5,a5,1
	sb	a5,-18(s0)
	.loc 1 5427 54
	lbu	a5,-18(s0)
	addi	a4,s0,-16
	add	a5,a4,a5
	lbu	a5,-20(a5)
	.loc 1 5427 70
	srai	a5,a5,5
	andi	a5,a5,0xff
	andi	a5,a5,1
	andi	a4,a5,0xff
	.loc 1 5427 39
	lw	a5,-52(s0)
	sb	a4,0(a5)
	.loc 1 5430 55
	lbu	a5,-18(s0)
	addi	a4,s0,-16
	add	a5,a4,a5
	lbu	a5,-20(a5)
	.loc 1 5430 71
	srai	a5,a5,6
	andi	a5,a5,0xff
	andi	a5,a5,1
	andi	a4,a5,0xff
	.loc 1 5430 40
	lw	a5,-52(s0)
	sb	a4,1(a5)
	.loc 1 5433 55
	lbu	a5,-18(s0)
	addi	a4,s0,-16
	add	a5,a4,a5
	lbu	a5,-20(a5)
	.loc 1 5433 71
	srli	a5,a5,7
	andi	a4,a5,0xff
	.loc 1 5433 40
	lw	a5,-52(s0)
	sb	a4,2(a5)
	j	.L393
.L391:
	.loc 1 5438 14
	li	a5,-8
	sb	a5,-17(s0)
.L393:
	.loc 1 5441 12
	lb	a5,-17(s0)
	.loc 1 5442 1
	mv	a0,a5
	lw	ra,60(sp)
	.cfi_restore 1
	lw	s0,56(sp)
	.cfi_restore 8
	addi	sp,sp,64
	.cfi_def_cfa_register 2
	jr	ra
	.cfi_endproc
.LFE60:
	.size	get_vfrm_error_status, .-get_vfrm_error_status
	.align	1
	.type	set_feat_config, @function
set_feat_config:
.LFB61:
	.loc 1 5448 1
	.cfi_startproc
	addi	sp,sp,-48
	.cfi_def_cfa_offset 48
	sw	ra,44(sp)
	sw	s0,40(sp)
	.cfi_offset 1, -4
	.cfi_offset 8, -8
	addi	s0,sp,48
	.cfi_def_cfa 8, 0
	sw	a0,-36(s0)
	mv	a5,a1
	sw	a2,-44(s0)
	sb	a5,-37(s0)
	.loc 1 5452 21
	lbu	a4,-37(s0)
	li	a5,52
	mul	a5,a4,a5
	lw	a4,-36(s0)
	add	a5,a4,a5
	.loc 1 5452 27
	lbu	a5,0(a5)
	.loc 1 5452 5
	addi	a5,a5,-3
	li	a4,25
	bgtu	a5,a4,.L396
	slli	a4,a5,2
	lla	a5,.L398
	add	a5,a4,a5
	lw	a4,0(a5)
	lla	a5,.L398
	add	a5,a4,a5
	jr	a5
	.section	.rodata
	.align	2
	.align	2
.L398:
	.word	.L406-.L398
	.word	.L405-.L398
	.word	.L404-.L398
	.word	.L403-.L398
	.word	.L403-.L398
	.word	.L403-.L398
	.word	.L396-.L398
	.word	.L396-.L398
	.word	.L396-.L398
	.word	.L396-.L398
	.word	.L396-.L398
	.word	.L402-.L398
	.word	.L401-.L398
	.word	.L400-.L398
	.word	.L399-.L398
	.word	.L396-.L398
	.word	.L396-.L398
	.word	.L396-.L398
	.word	.L396-.L398
	.word	.L396-.L398
	.word	.L396-.L398
	.word	.L396-.L398
	.word	.L396-.L398
	.word	.L396-.L398
	.word	.L396-.L398
	.word	.L397-.L398
	.text
.L405:
	.loc 1 5456 51
	lbu	a4,-37(s0)
	li	a5,52
	mul	a5,a4,a5
	lw	a4,-36(s0)
	add	a5,a4,a5
	.loc 1 5456 42
	addi	a5,a5,2
	.loc 1 5456 20
	lw	a1,-44(s0)
	mv	a0,a5
	call	set_any_motion_config
	mv	a5,a0
	sb	a5,-17(s0)
	.loc 1 5457 13
	j	.L407
.L404:
	.loc 1 5461 50
	lbu	a4,-37(s0)
	li	a5,52
	mul	a5,a4,a5
	lw	a4,-36(s0)
	add	a5,a4,a5
	.loc 1 5461 41
	addi	a5,a5,2
	.loc 1 5461 20
	lw	a1,-44(s0)
	mv	a0,a5
	call	set_no_motion_config
	mv	a5,a0
	sb	a5,-17(s0)
	.loc 1 5462 13
	j	.L407
.L406:
	.loc 1 5466 51
	lbu	a4,-37(s0)
	li	a5,52
	mul	a5,a4,a5
	lw	a4,-36(s0)
	add	a5,a4,a5
	.loc 1 5466 42
	addi	a5,a5,2
	.loc 1 5466 20
	lw	a1,-44(s0)
	mv	a0,a5
	call	set_sig_motion_config
	mv	a5,a0
	sb	a5,-17(s0)
	.loc 1 5467 13
	j	.L407
.L403:
	.loc 1 5473 45
	lbu	a4,-37(s0)
	li	a5,52
	mul	a5,a4,a5
	lw	a4,-36(s0)
	add	a5,a4,a5
	.loc 1 5473 36
	addi	a5,a5,2
	.loc 1 5473 20
	lw	a1,-44(s0)
	mv	a0,a5
	call	set_step_config
	mv	a5,a0
	sb	a5,-17(s0)
	.loc 1 5474 13
	j	.L407
.L397:
	.loc 1 5478 53
	lbu	a4,-37(s0)
	li	a5,52
	mul	a5,a4,a5
	lw	a4,-36(s0)
	add	a5,a4,a5
	.loc 1 5478 20
	addi	a5,a5,2
	lw	a1,-44(s0)
	mv	a0,a5
	call	set_tap_detector_config
	mv	a5,a0
	sb	a5,-17(s0)
	.loc 1 5479 13
	j	.L407
.L402:
	.loc 1 5483 47
	lbu	a4,-37(s0)
	li	a5,52
	mul	a5,a4,a5
	lw	a4,-36(s0)
	add	a5,a4,a5
	.loc 1 5483 38
	addi	a5,a5,2
	.loc 1 5483 20
	lw	a1,-44(s0)
	mv	a0,a5
	call	set_orient_config
	mv	a5,a0
	sb	a5,-17(s0)
	.loc 1 5484 13
	j	.L407
.L401:
	.loc 1 5488 47
	lbu	a4,-37(s0)
	li	a5,52
	mul	a5,a4,a5
	lw	a4,-36(s0)
	add	a5,a4,a5
	.loc 1 5488 38
	addi	a5,a5,2
	.loc 1 5488 20
	lw	a1,-44(s0)
	mv	a0,a5
	call	set_high_g_config
	mv	a5,a0
	sb	a5,-17(s0)
	.loc 1 5489 13
	j	.L407
.L400:
	.loc 1 5493 46
	lbu	a4,-37(s0)
	li	a5,52
	mul	a5,a4,a5
	lw	a4,-36(s0)
	add	a5,a4,a5
	.loc 1 5493 37
	addi	a5,a5,2
	.loc 1 5493 20
	lw	a1,-44(s0)
	mv	a0,a5
	call	set_low_g_config
	mv	a5,a0
	sb	a5,-17(s0)
	.loc 1 5494 13
	j	.L407
.L399:
	.loc 1 5498 45
	lbu	a4,-37(s0)
	li	a5,52
	mul	a5,a4,a5
	lw	a4,-36(s0)
	add	a5,a4,a5
	.loc 1 5498 36
	addi	a5,a5,2
	.loc 1 5498 20
	lw	a1,-44(s0)
	mv	a0,a5
	call	set_flat_config
	mv	a5,a0
	sb	a5,-17(s0)
	.loc 1 5499 13
	j	.L407
.L396:
	.loc 1 5502 18
	li	a5,-8
	sb	a5,-17(s0)
	.loc 1 5503 13
	nop
.L407:
	.loc 1 5506 12
	lb	a5,-17(s0)
	.loc 1 5507 1
	mv	a0,a5
	lw	ra,44(sp)
	.cfi_restore 1
	lw	s0,40(sp)
	.cfi_restore 8
	addi	sp,sp,48
	.cfi_def_cfa_register 2
	jr	ra
	.cfi_endproc
.LFE61:
	.size	set_feat_config, .-set_feat_config
	.align	1
	.type	get_feat_config, @function
get_feat_config:
.LFB62:
	.loc 1 5513 1
	.cfi_startproc
	addi	sp,sp,-48
	.cfi_def_cfa_offset 48
	sw	ra,44(sp)
	sw	s0,40(sp)
	.cfi_offset 1, -4
	.cfi_offset 8, -8
	addi	s0,sp,48
	.cfi_def_cfa 8, 0
	sw	a0,-36(s0)
	mv	a5,a1
	sw	a2,-44(s0)
	sb	a5,-37(s0)
	.loc 1 5517 21
	lbu	a4,-37(s0)
	li	a5,52
	mul	a5,a4,a5
	lw	a4,-36(s0)
	add	a5,a4,a5
	.loc 1 5517 27
	lbu	a5,0(a5)
	.loc 1 5517 5
	addi	a5,a5,-3
	li	a4,25
	bgtu	a5,a4,.L410
	slli	a4,a5,2
	lla	a5,.L412
	add	a5,a4,a5
	lw	a4,0(a5)
	lla	a5,.L412
	add	a5,a4,a5
	jr	a5
	.section	.rodata
	.align	2
	.align	2
.L412:
	.word	.L420-.L412
	.word	.L419-.L412
	.word	.L418-.L412
	.word	.L417-.L412
	.word	.L417-.L412
	.word	.L417-.L412
	.word	.L410-.L412
	.word	.L410-.L412
	.word	.L410-.L412
	.word	.L410-.L412
	.word	.L410-.L412
	.word	.L416-.L412
	.word	.L415-.L412
	.word	.L414-.L412
	.word	.L413-.L412
	.word	.L410-.L412
	.word	.L410-.L412
	.word	.L410-.L412
	.word	.L410-.L412
	.word	.L410-.L412
	.word	.L410-.L412
	.word	.L410-.L412
	.word	.L410-.L412
	.word	.L410-.L412
	.word	.L410-.L412
	.word	.L411-.L412
	.text
.L420:
	.loc 1 5521 51
	lbu	a4,-37(s0)
	li	a5,52
	mul	a5,a4,a5
	lw	a4,-36(s0)
	add	a5,a4,a5
	.loc 1 5521 20
	addi	a5,a5,2
	lw	a1,-44(s0)
	mv	a0,a5
	call	get_sig_motion_config
	mv	a5,a0
	sb	a5,-17(s0)
	.loc 1 5522 13
	j	.L421
.L419:
	.loc 1 5526 51
	lbu	a4,-37(s0)
	li	a5,52
	mul	a5,a4,a5
	lw	a4,-36(s0)
	add	a5,a4,a5
	.loc 1 5526 20
	addi	a5,a5,2
	lw	a1,-44(s0)
	mv	a0,a5
	call	get_any_motion_config
	mv	a5,a0
	sb	a5,-17(s0)
	.loc 1 5527 13
	j	.L421
.L418:
	.loc 1 5531 50
	lbu	a4,-37(s0)
	li	a5,52
	mul	a5,a4,a5
	lw	a4,-36(s0)
	add	a5,a4,a5
	.loc 1 5531 20
	addi	a5,a5,2
	lw	a1,-44(s0)
	mv	a0,a5
	call	get_no_motion_config
	mv	a5,a0
	sb	a5,-17(s0)
	.loc 1 5532 13
	j	.L421
.L417:
	.loc 1 5538 45
	lbu	a4,-37(s0)
	li	a5,52
	mul	a5,a4,a5
	lw	a4,-36(s0)
	add	a5,a4,a5
	.loc 1 5538 20
	addi	a5,a5,2
	lw	a1,-44(s0)
	mv	a0,a5
	call	get_step_config
	mv	a5,a0
	sb	a5,-17(s0)
	.loc 1 5539 13
	j	.L421
.L411:
	.loc 1 5543 53
	lbu	a4,-37(s0)
	li	a5,52
	mul	a5,a4,a5
	lw	a4,-36(s0)
	add	a5,a4,a5
	.loc 1 5543 20
	addi	a5,a5,2
	lw	a1,-44(s0)
	mv	a0,a5
	call	get_tap_detector_config
	mv	a5,a0
	sb	a5,-17(s0)
	.loc 1 5544 13
	j	.L421
.L416:
	.loc 1 5548 47
	lbu	a4,-37(s0)
	li	a5,52
	mul	a5,a4,a5
	lw	a4,-36(s0)
	add	a5,a4,a5
	.loc 1 5548 20
	addi	a5,a5,2
	lw	a1,-44(s0)
	mv	a0,a5
	call	get_orient_config
	mv	a5,a0
	sb	a5,-17(s0)
	.loc 1 5549 13
	j	.L421
.L415:
	.loc 1 5553 47
	lbu	a4,-37(s0)
	li	a5,52
	mul	a5,a4,a5
	lw	a4,-36(s0)
	add	a5,a4,a5
	.loc 1 5553 20
	addi	a5,a5,2
	lw	a1,-44(s0)
	mv	a0,a5
	call	get_high_g_config
	mv	a5,a0
	sb	a5,-17(s0)
	.loc 1 5554 13
	j	.L421
.L414:
	.loc 1 5558 46
	lbu	a4,-37(s0)
	li	a5,52
	mul	a5,a4,a5
	lw	a4,-36(s0)
	add	a5,a4,a5
	.loc 1 5558 20
	addi	a5,a5,2
	lw	a1,-44(s0)
	mv	a0,a5
	call	get_low_g_config
	mv	a5,a0
	sb	a5,-17(s0)
	.loc 1 5559 13
	j	.L421
.L413:
	.loc 1 5563 45
	lbu	a4,-37(s0)
	li	a5,52
	mul	a5,a4,a5
	lw	a4,-36(s0)
	add	a5,a4,a5
	.loc 1 5563 20
	addi	a5,a5,2
	lw	a1,-44(s0)
	mv	a0,a5
	call	get_flat_config
	mv	a5,a0
	sb	a5,-17(s0)
	.loc 1 5564 13
	j	.L421
.L410:
	.loc 1 5567 18
	li	a5,-8
	sb	a5,-17(s0)
	.loc 1 5568 13
	nop
.L421:
	.loc 1 5571 12
	lb	a5,-17(s0)
	.loc 1 5572 1
	mv	a0,a5
	lw	ra,44(sp)
	.cfi_restore 1
	lw	s0,40(sp)
	.cfi_restore 8
	addi	sp,sp,48
	.cfi_def_cfa_register 2
	jr	ra
	.cfi_endproc
.LFE62:
	.size	get_feat_config, .-get_feat_config
	.align	1
	.type	sens_select, @function
sens_select:
.LFB63:
	.loc 1 5578 1
	.cfi_startproc
	addi	sp,sp,-144
	.cfi_def_cfa_offset 144
	sw	s0,140(sp)
	sw	s2,136(sp)
	sw	s3,132(sp)
	sw	s4,128(sp)
	sw	s5,124(sp)
	sw	s6,120(sp)
	sw	s7,116(sp)
	sw	s8,112(sp)
	sw	s9,108(sp)
	sw	s10,104(sp)
	sw	s11,100(sp)
	.cfi_offset 8, -4
	.cfi_offset 18, -8
	.cfi_offset 19, -12
	.cfi_offset 20, -16
	.cfi_offset 21, -20
	.cfi_offset 22, -24
	.cfi_offset 23, -28
	.cfi_offset 24, -32
	.cfi_offset 25, -36
	.cfi_offset 26, -40
	.cfi_offset 27, -44
	addi	s0,sp,144
	.cfi_def_cfa 8, 0
	sw	a0,-68(s0)
	mv	a5,a1
	sw	a2,-76(s0)
	sb	a5,-69(s0)
	.loc 1 5580 12
	sb	zero,-49(s0)
	.loc 1 5582 22
	lbu	a4,-69(s0)
	lw	a5,-68(s0)
	add	a5,a5,a4
	lbu	a5,0(a5)
	.loc 1 5582 5
	addi	a4,a5,-3
	li	a5,31
	bgtu	a4,a5,.L424
	slli	a4,a4,2
	lla	a5,.L426
	add	a5,a4,a5
	lw	a4,0(a5)
	lla	a5,.L426
	add	a5,a4,a5
	jr	a5
	.section	.rodata
	.align	2
	.align	2
.L426:
	.word	.L440-.L426
	.word	.L439-.L426
	.word	.L438-.L426
	.word	.L437-.L426
	.word	.L436-.L426
	.word	.L435-.L426
	.word	.L434-.L426
	.word	.L424-.L426
	.word	.L424-.L426
	.word	.L424-.L426
	.word	.L424-.L426
	.word	.L433-.L426
	.word	.L432-.L426
	.word	.L431-.L426
	.word	.L430-.L426
	.word	.L424-.L426
	.word	.L424-.L426
	.word	.L424-.L426
	.word	.L424-.L426
	.word	.L424-.L426
	.word	.L424-.L426
	.word	.L424-.L426
	.word	.L429-.L426
	.word	.L428-.L426
	.word	.L427-.L426
	.word	.L424-.L426
	.word	.L424-.L426
	.word	.L424-.L426
	.word	.L424-.L426
	.word	.L424-.L426
	.word	.L424-.L426
	.word	.L425-.L426
	.text
.L440:
	.loc 1 5585 25
	lw	a5,-76(s0)
	lw	a6,4(a5)
	lw	a5,0(a5)
	ori	a4,a5,8
	sw	a4,-88(s0)
	ori	a5,a6,0
	sw	a5,-84(s0)
	lw	a5,-76(s0)
	lw	a3,-88(s0)
	lw	a4,-84(s0)
	sw	a3,0(a5)
	sw	a4,4(a5)
	.loc 1 5586 13
	j	.L441
.L439:
	.loc 1 5588 25
	lw	a5,-76(s0)
	lw	a6,4(a5)
	lw	a5,0(a5)
	ori	a4,a5,16
	sw	a4,-96(s0)
	ori	a5,a6,0
	sw	a5,-92(s0)
	lw	a5,-76(s0)
	lw	a3,-96(s0)
	lw	a4,-92(s0)
	sw	a3,0(a5)
	sw	a4,4(a5)
	.loc 1 5589 13
	j	.L441
.L438:
	.loc 1 5591 25
	lw	a5,-76(s0)
	lw	a6,4(a5)
	lw	a5,0(a5)
	ori	a4,a5,32
	sw	a4,-104(s0)
	ori	a5,a6,0
	sw	a5,-100(s0)
	lw	a5,-76(s0)
	lw	a3,-104(s0)
	lw	a4,-100(s0)
	sw	a3,0(a5)
	sw	a4,4(a5)
	.loc 1 5592 13
	j	.L441
.L437:
	.loc 1 5594 25
	lw	a5,-76(s0)
	lw	a6,4(a5)
	lw	a5,0(a5)
	ori	a4,a5,64
	sw	a4,-112(s0)
	ori	a5,a6,0
	sw	a5,-108(s0)
	lw	a5,-76(s0)
	lw	a3,-112(s0)
	lw	a4,-108(s0)
