	.file	"syscalls.c"
	.option nopic
	.text
.Ltext0:
	.cfi_sections	.debug_frame
	.align	1
	.globl	_malloc_r
	.type	_malloc_r, @function
_malloc_r:
.LFB23:
	.file 1 "../rt-thread/components/libc/compilers/newlib/syscalls.c"
	.loc 1 36 1
	.cfi_startproc
	addi	sp,sp,-48
	.cfi_def_cfa_offset 48
	sw	ra,44(sp)
	sw	s0,40(sp)
	.cfi_offset 1, -4
	.cfi_offset 8, -8
	addi	s0,sp,48
	.cfi_def_cfa 8, 0
	sw	a0,-36(s0)
	sw	a1,-40(s0)
	.loc 1 39 14
	lw	a0,-40(s0)
	call	rt_malloc
	sw	a0,-20(s0)
	.loc 1 40 8
	lw	a5,-20(s0)
	bnez	a5,.L2
	.loc 1 42 21
	lw	a5,-36(s0)
	li	a4,12
	sw	a4,0(a5)
.L2:
	.loc 1 45 12
	lw	a5,-20(s0)
	.loc 1 46 1
	mv	a0,a5
	lw	ra,44(sp)
	.cfi_restore 1
	lw	s0,40(sp)
	.cfi_restore 8
	addi	sp,sp,48
	.cfi_def_cfa_register 2
	jr	ra
	.cfi_endproc
.LFE23:
	.size	_malloc_r, .-_malloc_r
	.align	1
	.globl	_realloc_r
	.type	_realloc_r, @function
_realloc_r:
.LFB24:
	.loc 1 49 1
	.cfi_startproc
	addi	sp,sp,-48
	.cfi_def_cfa_offset 48
	sw	ra,44(sp)
	sw	s0,40(sp)
	.cfi_offset 1, -4
	.cfi_offset 8, -8
	addi	s0,sp,48
	.cfi_def_cfa 8, 0
	sw	a0,-36(s0)
	sw	a1,-40(s0)
	sw	a2,-44(s0)
	.loc 1 52 14
	lw	a1,-44(s0)
	lw	a0,-40(s0)
	call	rt_realloc
	sw	a0,-20(s0)
	.loc 1 53 8
	lw	a5,-20(s0)
	bnez	a5,.L5
	.loc 1 55 21
	lw	a5,-36(s0)
	li	a4,12
	sw	a4,0(a5)
.L5:
	.loc 1 58 12
	lw	a5,-20(s0)
	.loc 1 59 1
	mv	a0,a5
	lw	ra,44(sp)
	.cfi_restore 1
	lw	s0,40(sp)
	.cfi_restore 8
	addi	sp,sp,48
	.cfi_def_cfa_register 2
	jr	ra
	.cfi_endproc
.LFE24:
	.size	_realloc_r, .-_realloc_r
	.align	1
	.globl	_calloc_r
	.type	_calloc_r, @function
_calloc_r:
.LFB25:
	.loc 1 62 1
	.cfi_startproc
	addi	sp,sp,-48
	.cfi_def_cfa_offset 48
	sw	ra,44(sp)
	sw	s0,40(sp)
	.cfi_offset 1, -4
	.cfi_offset 8, -8
	addi	s0,sp,48
	.cfi_def_cfa 8, 0
	sw	a0,-36(s0)
	sw	a1,-40(s0)
	sw	a2,-44(s0)
	.loc 1 65 14
	lw	a1,-44(s0)
	lw	a0,-40(s0)
	call	rt_calloc
	sw	a0,-20(s0)
	.loc 1 66 8
	lw	a5,-20(s0)
	bnez	a5,.L8
	.loc 1 68 21
	lw	a5,-36(s0)
	li	a4,12
	sw	a4,0(a5)
.L8:
	.loc 1 71 12
	lw	a5,-20(s0)
	.loc 1 72 1
	mv	a0,a5
	lw	ra,44(sp)
	.cfi_restore 1
	lw	s0,40(sp)
	.cfi_restore 8
	addi	sp,sp,48
	.cfi_def_cfa_register 2
	jr	ra
	.cfi_endproc
.LFE25:
	.size	_calloc_r, .-_calloc_r
	.align	1
	.globl	_free_r
	.type	_free_r, @function
_free_r:
.LFB26:
	.loc 1 75 1
	.cfi_startproc
	addi	sp,sp,-32
	.cfi_def_cfa_offset 32
	sw	ra,28(sp)
	sw	s0,24(sp)
	.cfi_offset 1, -4
	.cfi_offset 8, -8
	addi	s0,sp,32
	.cfi_def_cfa 8, 0
	sw	a0,-20(s0)
	sw	a1,-24(s0)
	.loc 1 76 5
	lw	a0,-24(s0)
	call	rt_free
	.loc 1 77 1
	nop
	lw	ra,28(sp)
	.cfi_restore 1
	lw	s0,24(sp)
	.cfi_restore 8
	addi	sp,sp,32
	.cfi_def_cfa_register 2
	jr	ra
	.cfi_endproc
.LFE26:
	.size	_free_r, .-_free_r
	.align	1
	.globl	__libc_init_array
	.type	__libc_init_array, @function
__libc_init_array:
.LFB27:
	.loc 1 89 1
	.cfi_startproc
	addi	sp,sp,-16
	.cfi_def_cfa_offset 16
	sw	s0,12(sp)
	.cfi_offset 8, -4
	addi	s0,sp,16
	.cfi_def_cfa 8, 0
	.loc 1 92 1
	nop
	lw	s0,12(sp)
	.cfi_restore 8
	addi	sp,sp,16
	.cfi_def_cfa_register 2
	jr	ra
	.cfi_endproc
.LFE27:
	.size	__libc_init_array, .-__libc_init_array
	.align	1
	.globl	__errno
	.type	__errno, @function
__errno:
.LFB28:
	.loc 1 97 1
	.cfi_startproc
	addi	sp,sp,-16
	.cfi_def_cfa_offset 16
	sw	ra,12(sp)
	sw	s0,8(sp)
	.cfi_offset 1, -4
	.cfi_offset 8, -8
	addi	s0,sp,16
	.cfi_def_cfa 8, 0
	.loc 1 98 10
	call	_rt_errno
	mv	a5,a0
	.loc 1 99 1
	mv	a0,a5
	lw	ra,12(sp)
	.cfi_restore 1
	lw	s0,8(sp)
	.cfi_restore 8
	addi	sp,sp,16
	.cfi_def_cfa_register 2
	jr	ra
	.cfi_endproc
.LFE28:
	.size	__errno, .-__errno
	.align	1
	.globl	_getpid_r
	.type	_getpid_r, @function
_getpid_r:
.LFB29:
	.loc 1 103 1
	.cfi_startproc
	addi	sp,sp,-32
	.cfi_def_cfa_offset 32
	sw	s0,28(sp)
	.cfi_offset 8, -4
	addi	s0,sp,32
	.cfi_def_cfa 8, 0
	sw	a0,-20(s0)
	.loc 1 104 12
	li	a5,0
	.loc 1 105 1
	mv	a0,a5
	lw	s0,28(sp)
	.cfi_restore 8
	addi	sp,sp,32
	.cfi_def_cfa_register 2
	jr	ra
	.cfi_endproc
.LFE29:
	.size	_getpid_r, .-_getpid_r
	.align	1
	.globl	_close_r
	.type	_close_r, @function
_close_r:
.LFB30:
	.loc 1 108 1
	.cfi_startproc
	addi	sp,sp,-32
	.cfi_def_cfa_offset 32
	sw	s0,28(sp)
	.cfi_offset 8, -4
	addi	s0,sp,32
	.cfi_def_cfa 8, 0
	sw	a0,-20(s0)
	sw	a1,-24(s0)
	.loc 1 113 17
	lw	a5,-20(s0)
	li	a4,134
	sw	a4,0(a5)
	.loc 1 114 12
	li	a5,-1
	.loc 1 116 1
	mv	a0,a5
	lw	s0,28(sp)
	.cfi_restore 8
	addi	sp,sp,32
	.cfi_def_cfa_register 2
	jr	ra
	.cfi_endproc
.LFE30:
	.size	_close_r, .-_close_r
	.align	1
	.globl	_execve_r
	.type	_execve_r, @function
_execve_r:
.LFB31:
	.loc 1 119 1
	.cfi_startproc
	addi	sp,sp,-32
	.cfi_def_cfa_offset 32
	sw	s0,28(sp)
	.cfi_offset 8, -4
	addi	s0,sp,32
	.cfi_def_cfa 8, 0
	sw	a0,-20(s0)
	sw	a1,-24(s0)
	sw	a2,-28(s0)
	sw	a3,-32(s0)
	.loc 1 120 17
	lw	a5,-20(s0)
	li	a4,134
	sw	a4,0(a5)
	.loc 1 121 12
	li	a5,-1
	.loc 1 122 1
	mv	a0,a5
	lw	s0,28(sp)
	.cfi_restore 8
	addi	sp,sp,32
	.cfi_def_cfa_register 2
	jr	ra
	.cfi_endproc
.LFE31:
	.size	_execve_r, .-_execve_r
	.align	1
	.globl	_fcntl_r
	.type	_fcntl_r, @function
_fcntl_r:
.LFB32:
	.loc 1 125 1
	.cfi_startproc
	addi	sp,sp,-32
	.cfi_def_cfa_offset 32
	sw	s0,28(sp)
	.cfi_offset 8, -4
	addi	s0,sp,32
	.cfi_def_cfa 8, 0
	sw	a0,-20(s0)
	sw	a1,-24(s0)
	sw	a2,-28(s0)
	sw	a3,-32(s0)
	.loc 1 126 17
	lw	a5,-20(s0)
	li	a4,134
	sw	a4,0(a5)
	.loc 1 127 12
	li	a5,-1
	.loc 1 128 1
	mv	a0,a5
	lw	s0,28(sp)
	.cfi_restore 8
	addi	sp,sp,32
	.cfi_def_cfa_register 2
	jr	ra
	.cfi_endproc
.LFE32:
	.size	_fcntl_r, .-_fcntl_r
	.align	1
	.globl	_fork_r
	.type	_fork_r, @function
_fork_r:
.LFB33:
	.loc 1 131 1
	.cfi_startproc
	addi	sp,sp,-32
	.cfi_def_cfa_offset 32
	sw	s0,28(sp)
	.cfi_offset 8, -4
	addi	s0,sp,32
	.cfi_def_cfa 8, 0
	sw	a0,-20(s0)
	.loc 1 132 17
	lw	a5,-20(s0)
	li	a4,134
	sw	a4,0(a5)
	.loc 1 133 12
	li	a5,-1
	.loc 1 134 1
	mv	a0,a5
	lw	s0,28(sp)
	.cfi_restore 8
	addi	sp,sp,32
	.cfi_def_cfa_register 2
	jr	ra
	.cfi_endproc
.LFE33:
	.size	_fork_r, .-_fork_r
	.align	1
	.globl	_fstat_r
	.type	_fstat_r, @function
_fstat_r:
.LFB34:
	.loc 1 137 1
	.cfi_startproc
	addi	sp,sp,-32
	.cfi_def_cfa_offset 32
	sw	s0,28(sp)
	.cfi_offset 8, -4
	addi	s0,sp,32
	.cfi_def_cfa 8, 0
	sw	a0,-20(s0)
	sw	a1,-24(s0)
	sw	a2,-28(s0)
	.loc 1 138 17
	lw	a5,-20(s0)
	li	a4,134
	sw	a4,0(a5)
	.loc 1 139 12
	li	a5,-1
	.loc 1 140 1
	mv	a0,a5
	lw	s0,28(sp)
	.cfi_restore 8
	addi	sp,sp,32
	.cfi_def_cfa_register 2
	jr	ra
	.cfi_endproc
.LFE34:
	.size	_fstat_r, .-_fstat_r
	.align	1
	.globl	_isatty_r
	.type	_isatty_r, @function
_isatty_r:
.LFB35:
	.loc 1 143 1
	.cfi_startproc
	addi	sp,sp,-32
	.cfi_def_cfa_offset 32
	sw	s0,28(sp)
	.cfi_offset 8, -4
	addi	s0,sp,32
	.cfi_def_cfa 8, 0
	sw	a0,-20(s0)
	sw	a1,-24(s0)
	.loc 1 144 8
	lw	a5,-24(s0)
	bltz	a5,.L27
	.loc 1 144 16 discriminator 1
	lw	a4,-24(s0)
	li	a5,2
	bgt	a4,a5,.L27
	.loc 1 146 16
	li	a5,1
	j	.L28
.L27:
	.loc 1 150 16
	li	a5,0
.L28:
	.loc 1 152 1
	mv	a0,a5
	lw	s0,28(sp)
	.cfi_restore 8
	addi	sp,sp,32
	.cfi_def_cfa_register 2
	jr	ra
	.cfi_endproc
.LFE35:
	.size	_isatty_r, .-_isatty_r
	.align	1
	.globl	_kill_r
	.type	_kill_r, @function
_kill_r:
.LFB36:
	.loc 1 155 1
	.cfi_startproc
	addi	sp,sp,-32
	.cfi_def_cfa_offset 32
	sw	s0,28(sp)
	.cfi_offset 8, -4
	addi	s0,sp,32
	.cfi_def_cfa 8, 0
	sw	a0,-20(s0)
	sw	a1,-24(s0)
	sw	a2,-28(s0)
	.loc 1 156 17
	lw	a5,-20(s0)
	li	a4,134
	sw	a4,0(a5)
	.loc 1 157 12
	li	a5,-1
	.loc 1 158 1
	mv	a0,a5
	lw	s0,28(sp)
	.cfi_restore 8
	addi	sp,sp,32
	.cfi_def_cfa_register 2
	jr	ra
	.cfi_endproc
.LFE36:
	.size	_kill_r, .-_kill_r
	.align	1
	.globl	_link_r
	.type	_link_r, @function
_link_r:
.LFB37:
	.loc 1 161 1
	.cfi_startproc
	addi	sp,sp,-32
	.cfi_def_cfa_offset 32
	sw	s0,28(sp)
	.cfi_offset 8, -4
	addi	s0,sp,32
	.cfi_def_cfa 8, 0
	sw	a0,-20(s0)
	sw	a1,-24(s0)
	sw	a2,-28(s0)
	.loc 1 162 17
	lw	a5,-20(s0)
	li	a4,134
	sw	a4,0(a5)
	.loc 1 163 12
	li	a5,-1
	.loc 1 164 1
	mv	a0,a5
	lw	s0,28(sp)
	.cfi_restore 8
	addi	sp,sp,32
	.cfi_def_cfa_register 2
	jr	ra
	.cfi_endproc
.LFE37:
	.size	_link_r, .-_link_r
	.align	1
	.globl	_wait_r
	.type	_wait_r, @function
_wait_r:
.LFB38:
	.loc 1 167 1
	.cfi_startproc
	addi	sp,sp,-32
	.cfi_def_cfa_offset 32
	sw	s0,28(sp)
	.cfi_offset 8, -4
	addi	s0,sp,32
	.cfi_def_cfa 8, 0
	sw	a0,-20(s0)
	sw	a1,-24(s0)
	.loc 1 168 17
	lw	a5,-20(s0)
	li	a4,134
	sw	a4,0(a5)
	.loc 1 169 12
	li	a5,-1
	.loc 1 170 1
	mv	a0,a5
	lw	s0,28(sp)
	.cfi_restore 8
	addi	sp,sp,32
	.cfi_def_cfa_register 2
	jr	ra
	.cfi_endproc
.LFE38:
	.size	_wait_r, .-_wait_r
	.align	1
	.globl	umask
	.type	umask, @function
umask:
.LFB39:
	.loc 1 173 1
	.cfi_startproc
	addi	sp,sp,-32
	.cfi_def_cfa_offset 32
	sw	s0,28(sp)
	.cfi_offset 8, -4
	addi	s0,sp,32
	.cfi_def_cfa 8, 0
	sw	a0,-20(s0)
	.loc 1 174 12
	li	a5,18
	.loc 1 175 1
	mv	a0,a5
	lw	s0,28(sp)
	.cfi_restore 8
	addi	sp,sp,32
	.cfi_def_cfa_register 2
	jr	ra
	.cfi_endproc
.LFE39:
	.size	umask, .-umask
	.align	1
	.globl	flock
	.type	flock, @function
flock:
.LFB40:
	.loc 1 178 1
	.cfi_startproc
	addi	sp,sp,-32
	.cfi_def_cfa_offset 32
	sw	s0,28(sp)
	.cfi_offset 8, -4
	addi	s0,sp,32
	.cfi_def_cfa 8, 0
	sw	a0,-20(s0)
	sw	a1,-24(s0)
	.loc 1 179 12
	li	a5,0
	.loc 1 180 1
	mv	a0,a5
	lw	s0,28(sp)
	.cfi_restore 8
	addi	sp,sp,32
	.cfi_def_cfa_register 2
	jr	ra
	.cfi_endproc
.LFE40:
	.size	flock, .-flock
	.align	1
	.globl	_lseek_r
	.type	_lseek_r, @function
_lseek_r:
.LFB41:
	.loc 1 183 1
	.cfi_startproc
	addi	sp,sp,-32
	.cfi_def_cfa_offset 32
	sw	s0,28(sp)
	.cfi_offset 8, -4
	addi	s0,sp,32
	.cfi_def_cfa 8, 0
	sw	a0,-20(s0)
	sw	a1,-24(s0)
	sw	a2,-28(s0)
	sw	a3,-32(s0)
	.loc 1 190 17
	lw	a5,-20(s0)
	li	a4,134
	sw	a4,0(a5)
	.loc 1 191 12
	li	a5,-1
	.loc 1 193 1
	mv	a0,a5
	lw	s0,28(sp)
	.cfi_restore 8
	addi	sp,sp,32
	.cfi_def_cfa_register 2
	jr	ra
	.cfi_endproc
.LFE41:
	.size	_lseek_r, .-_lseek_r
	.align	1
	.globl	_mkdir_r
	.type	_mkdir_r, @function
_mkdir_r:
.LFB42:
	.loc 1 196 1
	.cfi_startproc
	addi	sp,sp,-32
	.cfi_def_cfa_offset 32
	sw	s0,28(sp)
	.cfi_offset 8, -4
	addi	s0,sp,32
	.cfi_def_cfa 8, 0
	sw	a0,-20(s0)
	sw	a1,-24(s0)
	sw	a2,-28(s0)
	.loc 1 203 17
	lw	a5,-20(s0)
	li	a4,134
	sw	a4,0(a5)
	.loc 1 204 12
	li	a5,-1
	.loc 1 206 1
	mv	a0,a5
	lw	s0,28(sp)
	.cfi_restore 8
	addi	sp,sp,32
	.cfi_def_cfa_register 2
	jr	ra
	.cfi_endproc
.LFE42:
	.size	_mkdir_r, .-_mkdir_r
	.align	1
	.globl	_open_r
	.type	_open_r, @function
_open_r:
.LFB43:
	.loc 1 209 1
	.cfi_startproc
	addi	sp,sp,-32
	.cfi_def_cfa_offset 32
	sw	s0,28(sp)
	.cfi_offset 8, -4
	addi	s0,sp,32
	.cfi_def_cfa 8, 0
	sw	a0,-20(s0)
	sw	a1,-24(s0)
	sw	a2,-28(s0)
	sw	a3,-32(s0)
	.loc 1 216 17
	lw	a5,-20(s0)
	li	a4,134
	sw	a4,0(a5)
	.loc 1 217 12
	li	a5,-1
	.loc 1 219 1
	mv	a0,a5
	lw	s0,28(sp)
	.cfi_restore 8
	addi	sp,sp,32
	.cfi_def_cfa_register 2
	jr	ra
	.cfi_endproc
.LFE43:
	.size	_open_r, .-_open_r
	.align	1
	.globl	_read_r
	.type	_read_r, @function
_read_r:
.LFB44:
	.loc 1 222 1
	.cfi_startproc
	addi	sp,sp,-32
	.cfi_def_cfa_offset 32
	sw	s0,28(sp)
	.cfi_offset 8, -4
	addi	s0,sp,32
	.cfi_def_cfa 8, 0
	sw	a0,-20(s0)
	sw	a1,-24(s0)
	sw	a2,-28(s0)
	sw	a3,-32(s0)
	.loc 1 249 17
	lw	a5,-20(s0)
	li	a4,134
	sw	a4,0(a5)
	.loc 1 250 12
	li	a5,-1
	.loc 1 252 1
	mv	a0,a5
	lw	s0,28(sp)
	.cfi_restore 8
	addi	sp,sp,32
	.cfi_def_cfa_register 2
	jr	ra
	.cfi_endproc
.LFE44:
	.size	_read_r, .-_read_r
	.align	1
	.globl	_rename_r
	.type	_rename_r, @function
_rename_r:
.LFB45:
	.loc 1 255 1
	.cfi_startproc
	addi	sp,sp,-32
	.cfi_def_cfa_offset 32
	sw	s0,28(sp)
	.cfi_offset 8, -4
	addi	s0,sp,32
	.cfi_def_cfa 8, 0
	sw	a0,-20(s0)
	sw	a1,-24(s0)
	sw	a2,-28(s0)
	.loc 1 262 17
	lw	a5,-20(s0)
	li	a4,134
	sw	a4,0(a5)
	.loc 1 263 12
	li	a5,-1
	.loc 1 265 1
	mv	a0,a5
	lw	s0,28(sp)
	.cfi_restore 8
	addi	sp,sp,32
	.cfi_def_cfa_register 2
	jr	ra
	.cfi_endproc
.LFE45:
	.size	_rename_r, .-_rename_r
	.align	1
	.globl	_stat_r
	.type	_stat_r, @function
_stat_r:
.LFB46:
	.loc 1 268 1
	.cfi_startproc
	addi	sp,sp,-32
	.cfi_def_cfa_offset 32
	sw	s0,28(sp)
	.cfi_offset 8, -4
	addi	s0,sp,32
	.cfi_def_cfa 8, 0
	sw	a0,-20(s0)
	sw	a1,-24(s0)
	sw	a2,-28(s0)
	.loc 1 275 17
	lw	a5,-20(s0)
	li	a4,134
	sw	a4,0(a5)
	.loc 1 276 12
	li	a5,-1
	.loc 1 278 1
	mv	a0,a5
	lw	s0,28(sp)
	.cfi_restore 8
	addi	sp,sp,32
	.cfi_def_cfa_register 2
	jr	ra
	.cfi_endproc
.LFE46:
	.size	_stat_r, .-_stat_r
	.align	1
	.globl	_unlink_r
	.type	_unlink_r, @function
_unlink_r:
.LFB47:
	.loc 1 281 1
	.cfi_startproc
	addi	sp,sp,-32
	.cfi_def_cfa_offset 32
	sw	s0,28(sp)
	.cfi_offset 8, -4
	addi	s0,sp,32
	.cfi_def_cfa 8, 0
	sw	a0,-20(s0)
	sw	a1,-24(s0)
	.loc 1 286 17
	lw	a5,-20(s0)
	li	a4,134
	sw	a4,0(a5)
	.loc 1 287 12
	li	a5,-1
	.loc 1 289 1
	mv	a0,a5
	lw	s0,28(sp)
	.cfi_restore 8
	addi	sp,sp,32
	.cfi_def_cfa_register 2
	jr	ra
	.cfi_endproc
.LFE47:
	.size	_unlink_r, .-_unlink_r
	.align	1
	.globl	_write_r
	.type	_write_r, @function
_write_r:
.LFB48:
	.loc 1 292 1
	.cfi_startproc
	addi	sp,sp,-48
	.cfi_def_cfa_offset 48
	sw	ra,44(sp)
	sw	s0,40(sp)
	.cfi_offset 1, -4
	.cfi_offset 8, -8
	addi	s0,sp,48
	.cfi_def_cfa 8, 0
	sw	a0,-36(s0)
	sw	a1,-40(s0)
	sw	a2,-44(s0)
	sw	a3,-48(s0)
	.loc 1 297 8
	lw	a4,-40(s0)
	li	a5,1
	beq	a4,a5,.L54
	.loc 1 297 17 discriminator 1
	lw	a4,-40(s0)
	li	a5,2
	bne	a4,a5,.L55
.L54:
.LBB2:
	.loc 1 302 19
	call	rt_console_get_device
	sw	a0,-20(s0)
	.loc 1 303 12
	lw	a5,-20(s0)
	beqz	a5,.L59
	.loc 1 304 20
	lw	a3,-48(s0)
	lw	a2,-44(s0)
	li	a1,-1
	lw	a0,-20(s0)
	call	rt_device_write
	mv	a5,a0
	j	.L57
.L55:
.LBE2:
	.loc 1 310 13
	lw	a5,-40(s0)
	bnez	a5,.L58
	.loc 1 312 21
	lw	a5,-36(s0)
	li	a4,134
	sw	a4,0(a5)
	.loc 1 313 16
	li	a5,-1
	j	.L57
.L59:
	.loc 1 298 5
	nop
.L58:
	.loc 1 321 17
	lw	a5,-36(s0)
	li	a4,134
	sw	a4,0(a5)
	.loc 1 322 12
	li	a5,-1
.L57:
	.loc 1 324 1
	mv	a0,a5
	lw	ra,44(sp)
	.cfi_restore 1
	lw	s0,40(sp)
	.cfi_restore 8
	addi	sp,sp,48
	.cfi_def_cfa_register 2
	jr	ra
	.cfi_endproc
.LFE48:
	.size	_write_r, .-_write_r
	.align	1
	.globl	_exit
	.type	_exit, @function
_exit:
.LFB49:
	.loc 1 328 1
	.cfi_startproc
	addi	sp,sp,-32
	.cfi_def_cfa_offset 32
	sw	ra,28(sp)
	sw	s0,24(sp)
	.cfi_offset 1, -4
	.cfi_offset 8, -8
	addi	s0,sp,32
	.cfi_def_cfa 8, 0
	sw	a0,-20(s0)
	.loc 1 330 5
	lw	a0,-20(s0)
	call	__rt_libc_exit
.L61:
	.loc 1 331 10 discriminator 1
	j	.L61
	.cfi_endproc
.LFE49:
	.size	_exit, .-_exit
.Letext0:
	.file 2 "c:\\rt-threadstudio\\repo\\extract\\toolchain_support_packages\\wch\\risc-v-gcc-wch\\8.2.0\\lib\\gcc\\riscv-none-embed\\8.2.0\\include\\stddef.h"
	.file 3 "c:\\rt-threadstudio\\repo\\extract\\toolchain_support_packages\\wch\\risc-v-gcc-wch\\8.2.0\\riscv-none-embed\\include\\machine\\_default_types.h"
	.file 4 "c:\\rt-threadstudio\\repo\\extract\\toolchain_support_packages\\wch\\risc-v-gcc-wch\\8.2.0\\riscv-none-embed\\include\\sys\\lock.h"
	.file 5 "c:\\rt-threadstudio\\repo\\extract\\toolchain_support_packages\\wch\\risc-v-gcc-wch\\8.2.0\\riscv-none-embed\\include\\sys\\_types.h"
	.file 6 "c:\\rt-threadstudio\\repo\\extract\\toolchain_support_packages\\wch\\risc-v-gcc-wch\\8.2.0\\riscv-none-embed\\include\\sys\\reent.h"
	.file 7 "c:\\rt-threadstudio\\repo\\extract\\toolchain_support_packages\\wch\\risc-v-gcc-wch\\8.2.0\\riscv-none-embed\\include\\sys\\_stdint.h"
	.file 8 "c:\\rt-threadstudio\\repo\\extract\\toolchain_support_packages\\wch\\risc-v-gcc-wch\\8.2.0\\riscv-none-embed\\include\\sys\\types.h"
	.file 9 "C:\\Users\\yaman\\OneDrive\\Documents\\rtthread-workspace\\CH32V208\\rt-thread\\include/rtdef.h"
	.file 10 "C:\\Users\\yaman\\OneDrive\\Documents\\rtthread-workspace\\CH32V208\\rt-thread\\components\\finsh/finsh.h"
	.file 11 "c:\\rt-threadstudio\\repo\\extract\\toolchain_support_packages\\wch\\risc-v-gcc-wch\\8.2.0\\riscv-none-embed\\include\\time.h"
	.file 12 "c:\\rt-threadstudio\\repo\\extract\\toolchain_support_packages\\wch\\risc-v-gcc-wch\\8.2.0\\riscv-none-embed\\include\\sys\\stat.h"
	.file 13 "c:\\rt-threadstudio\\repo\\extract\\toolchain_support_packages\\wch\\risc-v-gcc-wch\\8.2.0\\riscv-none-embed\\include\\sys\\errno.h"
	.file 14 "c:\\rt-threadstudio\\repo\\extract\\toolchain_support_packages\\wch\\risc-v-gcc-wch\\8.2.0\\riscv-none-embed\\include\\reent.h"
	.file 15 "c:\\rt-threadstudio\\repo\\extract\\toolchain_support_packages\\wch\\risc-v-gcc-wch\\8.2.0\\riscv-none-embed\\include\\stdio.h"