	.file	"u8log_u8x8.c"
	.option nopic
	.text
.Ltext0:
	.cfi_sections	.debug_frame
	.align	1
	.type	u8x8_DrawLogLine, @function
u8x8_DrawLogLine:
.LFB0:
	.file 1 "../packages/u8g2-official-latest/csrc/u8log_u8x8.c"
	.loc 1 41 1
	.cfi_startproc
	addi	sp,sp,-48
	.cfi_def_cfa_offset 48
	sw	ra,44(sp)
	sw	s0,40(sp)
	.cfi_offset 1, -4
	.cfi_offset 8, -8
	addi	s0,sp,48
	.cfi_def_cfa 8, 0
	sw	a0,-36(s0)
	mv	a5,a1
	sw	a4,-44(s0)
	sb	a5,-37(s0)
	mv	a5,a2
	sb	a5,-38(s0)
	mv	a5,a3
	sb	a5,-39(s0)
	.loc 1 44 14
	sb	zero,-17(s0)
	.loc 1 44 3
	j	.L2
.L3:
	.loc 1 46 14 discriminator 3
	lw	a5,-44(s0)
	lw	a5,12(a5)
	.loc 1 46 36 discriminator 3
	lbu	a4,-39(s0)
	.loc 1 46 43 discriminator 3
	lw	a3,-44(s0)
	lbu	a3,4(a3)
	.loc 1 46 36 discriminator 3
	mul	a3,a4,a3
	.loc 1 46 51 discriminator 3
	lbu	a4,-17(s0)
	add	a4,a3,a4
	.loc 1 46 29 discriminator 3
	add	a5,a5,a4
	.loc 1 46 7 discriminator 3
	lbu	a5,0(a5)
	sb	a5,-18(s0)
	.loc 1 47 5 discriminator 3
	lbu	a3,-18(s0)
	lbu	a4,-38(s0)
	lbu	a5,-37(s0)
	mv	a2,a4
	mv	a1,a5
	lw	a0,-36(s0)
	call	u8x8_DrawGlyph
	.loc 1 48 11 discriminator 3
	lbu	a5,-37(s0)
	addi	a5,a5,1
	sb	a5,-37(s0)
	.loc 1 44 46 discriminator 3
	lbu	a5,-17(s0)
	addi	a5,a5,1
	sb	a5,-17(s0)
.L2:
	.loc 1 44 32 discriminator 1
	lw	a5,-44(s0)
	lbu	a5,4(a5)
	.loc 1 44 3 discriminator 1
	lbu	a4,-17(s0)
	bltu	a4,a5,.L3
	.loc 1 50 1
	nop
	lw	ra,44(sp)
	.cfi_restore 1
	lw	s0,40(sp)
	.cfi_restore 8
	addi	sp,sp,48
	.cfi_def_cfa_register 2
	jr	ra
	.cfi_endproc
.LFE0:
	.size	u8x8_DrawLogLine, .-u8x8_DrawLogLine
	.align	1
	.globl	u8x8_DrawLog
	.type	u8x8_DrawLog, @function
u8x8_DrawLog:
.LFB1:
	.loc 1 53 1
	.cfi_startproc
	addi	sp,sp,-48
	.cfi_def_cfa_offset 48
	sw	ra,44(sp)
	sw	s0,40(sp)
	.cfi_offset 1, -4
	.cfi_offset 8, -8
	addi	s0,sp,48
	.cfi_def_cfa 8, 0
	sw	a0,-36(s0)
	mv	a5,a1
	mv	a4,a2
	sw	a3,-44(s0)
	sb	a5,-37(s0)
	mv	a5,a4
	sb	a5,-38(s0)
	.loc 1 55 14
	sb	zero,-17(s0)
	.loc 1 55 3
	j	.L5
.L6:
	.loc 1 57 5 discriminator 3
	lbu	a3,-17(s0)
	lbu	a2,-38(s0)
	lbu	a5,-37(s0)
	lw	a4,-44(s0)
	mv	a1,a5
	lw	a0,-36(s0)
	call	u8x8_DrawLogLine
	.loc 1 58 6 discriminator 3
	lbu	a5,-38(s0)
	addi	a5,a5,1
	sb	a5,-38(s0)
	.loc 1 55 47 discriminator 3
	lbu	a5,-17(s0)
	addi	a5,a5,1
	sb	a5,-17(s0)
.L5:
	.loc 1 55 32 discriminator 1
	lw	a5,-44(s0)
	lbu	a5,5(a5)
	.loc 1 55 3 discriminator 1
	lbu	a4,-17(s0)
	bltu	a4,a5,.L6
	.loc 1 60 1
	nop
	lw	ra,44(sp)
	.cfi_restore 1
	lw	s0,40(sp)
	.cfi_restore 8
	addi	sp,sp,48
	.cfi_def_cfa_register 2
	jr	ra
	.cfi_endproc
.LFE1:
	.size	u8x8_DrawLog, .-u8x8_DrawLog
	.align	1
	.globl	u8log_u8x8_cb
	.type	u8log_u8x8_cb, @function
u8log_u8x8_cb:
.LFB2:
	.loc 1 64 1
	.cfi_startproc
	addi	sp,sp,-48
	.cfi_def_cfa_offset 48
	sw	ra,44(sp)
	sw	s0,40(sp)
	.cfi_offset 1, -4
	.cfi_offset 8, -8
	addi	s0,sp,48
	.cfi_def_cfa 8, 0
	sw	a0,-36(s0)
	.loc 1 65 11
	lw	a5,-36(s0)
	lw	a5,0(a5)
	sw	a5,-20(s0)
	.loc 1 66 13
	lw	a5,-36(s0)
	lbu	a5,22(a5)
	.loc 1 66 6
	beqz	a5,.L8
	.loc 1 68 5
	lw	a3,-36(s0)
	li	a2,0
	li	a1,0
	lw	a0,-20(s0)
	call	u8x8_DrawLog
	.loc 1 74 1
	j	.L10
.L8:
	.loc 1 70 18
	lw	a5,-36(s0)
	lbu	a5,21(a5)
	.loc 1 70 11
	beqz	a5,.L10
	.loc 1 72 5
	lw	a5,-36(s0)
	lbu	a2,20(a5)
	lw	a5,-36(s0)
	lbu	a5,20(a5)
	lw	a4,-36(s0)
	mv	a3,a5
	li	a1,0
	lw	a0,-20(s0)
	call	u8x8_DrawLogLine
.L10:
	.loc 1 74 1
	nop
	lw	ra,44(sp)
	.cfi_restore 1
	lw	s0,40(sp)
	.cfi_restore 8
	addi	sp,sp,48
	.cfi_def_cfa_register 2
	jr	ra
	.cfi_endproc
.LFE2:
	.size	u8log_u8x8_cb, .-u8log_u8x8_cb
.Letext0:
	.file 2 "c:\\rt-threadstudio\\repo\\extract\\toolchain_support_packages\\wch\\risc-v-gcc-wch\\8.2.0\\riscv-none-embed\\include\\machine\\_default_types.h"
	.file 3 "c:\\rt-threadstudio\\repo\\extract\\toolchain_support_packages\\wch\\risc-v-gcc-wch\\8.2.0\\riscv-none-embed\\include\\sys\\_stdint.h"
	.file 4 "../packages/u8g2-official-latest/csrc/u8x8.h"